source_filename = "test"
target datalayout = "e-p:32:32-f64:32:64-f80:32-n8:16:32-S128"

%0 = type { i32, i32, i32, i32 }
%1 = type { i32, i32, i32, i32 }
%2 = type { i32, i32, i32, i32 }
%_RTL_CRITICAL_SECTION = type { %_RTL_CRITICAL_SECTION_DEBUG*, i32, i32, i32*, i32*, i32 }
%_RTL_CRITICAL_SECTION_DEBUG = type { i16, i16, %_RTL_CRITICAL_SECTION*, %_LIST_ENTRY, i32, i32, i32, i16, i16 }
%_LIST_ENTRY = type { %_LIST_ENTRY*, %_LIST_ENTRY* }
%vtable_4273c4_type = type { i32 (i32)*, i32 ()* }
%vtable_4273e8_type = type { i32 (i32)*, i32 ()* }
%vtable_42743c_type = type { i32 (i32)*, i32 ()*, i32 ()* }
%vtable_4274c8_type = type { i32 (i32)*, i32 ()* }
%vtable_4274d8_type = type { i32 (i32)*, i32 ()* }
%vtable_427508_type = type { i32 (i32)*, i32 ()*, i32 (i32, i32)*, i32 (i32)*, i32 (i32*, i32)*, i32 (i32, i32)* }
%vtable_427548_type = type { i32 (i32)*, i32 ()* }
%vtable_4275a4_type = type { i32 (i32)* }
%vtable_4275ac_type = type { i32 (i32)* }
%vtable_4275fc_type = type { i32 (i32)*, i32 ()*, i32 ()*, i32 (i32)*, i32 (i32)*, i32 ()*, i32 ()*, i32 ()*, i32 (i32, i32, i32)*, i32 (i32, i32, i32)*, i32 (i64, i32, i32)*, i32 (i32, i32)*, i32 (i8*, i64)*, i32 ()*, i32 (i32*)* }
%vtable_42763c_type = type { i32 ()* }
%vtable_4276bc_type = type { i32 (i32)*, i32 ()*, i32 ()*, i32 ()*, i32 ()*, i32 (i32)*, i32 (i32)*, i32 (i32)* }
%vtable_42771c_type = type { i32 (i32)*, i32 ()* }
%vtable_427738_type = type { i32 (i32)*, i32 ()* }
%vtable_427750_type = type { i32 (i32)*, i32 ()* }
%vtable_42831c_type = type { i32 (i32)* }
%vtable_42a904_type = type { i32 (i32)* }
%vtable_42a90c_type = type { i32 (i32)*, i32 ()* }
%_IO_FILE = type { i32 }
%lconv = type { i8*, i8*, i8*, i8*, i8*, i8*, i8*, i8*, i8*, i8*, i8, i8, i8, i8, i8, i8, i8, i8, i8, i8, i8, i8, i8, i8 }
%_EXCEPTION_POINTERS = type { %_EXCEPTION_RECORD*, %_CONTEXT* }
%_EXCEPTION_RECORD = type { i32, i32, %_EXCEPTION_RECORD*, i32*, i32, [1 x i32] }
%_CONTEXT = type { i32, i32, i32, i32, i32, i32, i32, i32, i16, i16, i16, i16, i16, i16, i32, i32, i32, i32, i32, i32, i32, i32, i32, i32, i32, i32, i32, i32, i32, i32, i32, i32, i32, i32, i32, i32, i32, i32, i32, [26 x %_M128A], i32, i32, i32, i32, i32, i32 }
%_M128A = type { i32, i64 }
%__locale_struct = type { [13 x %__locale_data*], i16*, i32*, i32*, [13 x i8*] }
%__locale_data = type { i32 }
%_cpinfo = type { i32, [1 x i8], [1 x i8] }
%_OVERLAPPED = type { i32, i32, i32, i32* }
%_TYPEDEF_fenv_t = type { i16, i16, i16, i16, i16, i16, i32, i16, i32, i32, i32, i16, i16, i32 }

@0 = external local_unnamed_addr global i32
@1 = external local_unnamed_addr global i32
@global_var_427448 = constant i32 0
@global_var_429720 = constant i32 0
@global_var_4308bb = local_unnamed_addr constant i32 1
@global_var_430808 = constant i32 811029573
@global_var_4342b1 = local_unnamed_addr global i32 0
@global_var_42723c = constant [8 x i8] c"jopfunc\00"
@global_var_4271f0 = constant [5 x i8] c"test\00"
@global_var_4271f8 = constant [5 x i8] c"view\00"
@global_var_427200 = constant [7 x i8] c"Size: \00"
@global_var_427208 = constant [11 x i8] c"channels: \00"
@global_var_427214 = constant [13 x i8] c"samplerate: \00"
@global_var_427224 = constant [16 x i8] c"bitsPerSample: \00"
@global_var_427234 = constant [5 x i8] c"exit\00"
@global_var_427244 = constant [5 x i8] c"RIFF\00"
@global_var_42724c = constant [5 x i8] c"WAVE\00"
@global_var_427254 = constant [5 x i8] c"fmt \00"
@global_var_42725c = constant [5 x i8] c"data\00"
@global_var_427264 = constant [16 x i8] c"Invalid format.\00"
@global_var_427274 = constant [5 x i8] c"NULL\00"
@global_var_42727c = constant [50 x i8] c"What to do? [test] audio, [view] data, or [exit]?\00"
@global_var_434250 = global i32 0
@global_var_4272b0 = local_unnamed_addr constant [5 x i8] c"NULL\00"
@global_var_4272b8 = constant [50 x i8] c"Enter a file and use correct number of arguments.\00"
@global_var_4272ec = constant [35 x i8] c"Run   wavread.exe help   for help.\00"
@global_var_427310 = constant [5 x i8] c"help\00"
@global_var_427318 = constant [36 x i8] c"To use menu: wavread.exe <file.wav>\00"
@global_var_427340 = constant [77 x i8] c"For faster use, make a file containing a command in the menu (test or view).\00"
@global_var_427390 = constant [47 x i8] c"Then run: wavread.exe <file.wav> <cmdfile.txt>\00"
@global_var_43452c = local_unnamed_addr global i32 0
@global_var_4340a8 = global i32 0
@global_var_426f80 = constant i32 -1175680171
@global_var_4340b4 = local_unnamed_addr global i32 0
@global_var_434090 = local_unnamed_addr global i32 0
@global_var_43114c = constant i32 0
@global_var_4340a4 = local_unnamed_addr global i32 0
@global_var_4341a8 = local_unnamed_addr global i32 0
@global_var_4340b8 = local_unnamed_addr global i32 0
@global_var_434094 = local_unnamed_addr global i32 0
@global_var_4340bc = local_unnamed_addr global i32 0
@global_var_434098 = local_unnamed_addr global i32 0
@global_var_427640 = constant i32 0
@global_var_4275b0 = constant i32 0
@global_var_4273e0 = local_unnamed_addr constant i32 -1
@global_var_42764c = constant i32 4211328
@global_var_42747c = constant i32 4211376
@global_var_427678 = constant i32 4211424
@global_var_427408 = local_unnamed_addr constant [16 x i8] c"bad locale name\00"
@global_var_43107c = constant i32 0
@global_var_427554 = constant i32 4212048
@global_var_4276dc = constant [3 x i8] c"eE\00"
@global_var_4276e0 = constant [3 x i8] c"pP\00"
@global_var_4276e4 = local_unnamed_addr constant i32 46
@global_var_4274d0 = constant [3 x i8] c": \00"
@global_var_4276b4 = constant [3 x i8] c"ld\00"
@global_var_4276b0 = constant [3 x i8] c"lu\00"
@global_var_4276a4 = constant [3 x i8] c"%p\00"
@global_var_4276ac = constant [3 x i8] c"Ld\00"
@global_var_4276a8 = constant [3 x i8] c"Lu\00"
@global_var_42752c = constant [22 x i8] c"iostream stream error\00"
@global_var_428268 = local_unnamed_addr constant i32 -1
@global_var_42826c = local_unnamed_addr constant i32 -1
@global_var_434088 = global i32 0
@global_var_43418c = local_unnamed_addr global i32 0
@global_var_4331c8 = global i32 -1153374642
@global_var_431330 = constant i32 -2
@global_var_431350 = constant i32 -2
@global_var_4344e0 = local_unnamed_addr global i32 0
@global_var_4271c8 = constant i32 0
@global_var_4271a4 = constant i32 0
@global_var_4271a0 = constant i32 0
@global_var_427158 = constant i32 0
@global_var_434530 = local_unnamed_addr global i32 0
@global_var_4331d0 = local_unnamed_addr global i32 1
@global_var_434534 = local_unnamed_addr global i32 0
@global_var_434fec = local_unnamed_addr global i32 0
@global_var_434538 = local_unnamed_addr global i32 0
@global_var_434540 = local_unnamed_addr global i32 0
@global_var_4331e0 = local_unnamed_addr global i32 1
@global_var_434fe8 = global i32 0
@global_var_434fe4 = global i32 0
@global_var_4314ac = constant i32 0
@global_var_4313f8 = constant i32 -2
@global_var_431490 = constant i32 -2
@global_var_43486c = local_unnamed_addr global i32 0
@global_var_42a954 = constant i32 4248670
@global_var_4331f0 = global i32 0
@global_var_42aaa8 = constant [14 x i8] c"Main Invoked.\00"
@global_var_430819 = constant i32 5
@global_var_42aab8 = constant [15 x i8] c"Main Returned.\00"
@global_var_430855 = constant i32 5
@global_var_433230 = local_unnamed_addr global i32 -1
@global_var_433240 = local_unnamed_addr global i32 429065504
@global_var_431528 = constant i32 -2
@global_var_434930 = local_unnamed_addr global i32 0
@global_var_43492c = local_unnamed_addr global i32 0
@global_var_431508 = constant i32 -2
@global_var_434cc8 = global i32 0
@global_var_4315b0 = constant i32 -2
@global_var_4315d0 = constant i32 -2
@global_var_434934 = local_unnamed_addr global i32 0
@global_var_433378 = global i32 0
@global_var_431610 = constant i32 -2
@global_var_434be0 = local_unnamed_addr global i32 0
@global_var_42b770 = constant i32 2097184
@global_var_4333b0 = global i32* @global_var_42b770
@global_var_433810 = global i32 0
@global_var_43346c = local_unnamed_addr global i32* @global_var_433810
@global_var_42b2f8 = constant i32 1
@global_var_42b2fc = constant i32 22
@global_var_434940 = global i32 0
@global_var_434a78 = local_unnamed_addr global i32 0
@global_var_42b9f0 = constant i32 50462976
@global_var_42bb70 = constant i32 50462976
@global_var_431630 = constant i32 -2
@global_var_434fb4 = local_unnamed_addr global i32 0
@global_var_42bc70 = local_unnamed_addr constant [5 x i8] c"sqrt\00"
@global_var_42cbc0 = local_unnamed_addr constant i32 0
@global_var_431690 = constant i32 -28
@global_var_434a80 = local_unnamed_addr global i32 0
@global_var_434a84 = local_unnamed_addr global i32 0
@global_var_434a9c = global i32 0
@global_var_434aa8 = global i32 0
@global_var_4271e4 = constant i32 0
@global_var_4271d4 = constant i32 0
@global_var_4271ec = constant i32 0
@global_var_4271e8 = constant i32 0
@global_var_434a90 = local_unnamed_addr global i32 0
@global_var_4316b8 = constant i32 -2
@global_var_4316d8 = constant i32 -2
@global_var_433a30 = local_unnamed_addr global i32* @global_var_433810
@global_var_434ecc = local_unnamed_addr global i32 0
@global_var_434ed0 = local_unnamed_addr global i32 0
@global_var_434bcc = global i32 0
@global_var_434bd0 = local_unnamed_addr global i32 0
@global_var_43004c = constant i32 0
@global_var_42be00 = constant i32* @global_var_43004c
@global_var_42bdb8 = constant i32** @global_var_42be00
@global_var_42bd40 = constant i32 4282136
@global_var_434ab4 = local_unnamed_addr global i32 0
@global_var_434bc8 = global i32 0
@global_var_431718 = constant i32 -2
@global_var_431738 = constant i32 -2
@global_var_434ed8 = global i32 0
@global_var_433300 = local_unnamed_addr global i32 46
@global_var_434938 = local_unnamed_addr global i32 0
@global_var_42b46a = local_unnamed_addr constant i32 2097184
@global_var_4333a8 = local_unnamed_addr global i32 1
@global_var_4316f8 = constant i32 -2
@global_var_42bf00 = constant [3 x i16] %wide-string
@global_var_42bdc4 = external constant i32
@global_var_43005f = local_unnamed_addr constant i32 255
@global_var_42be6c = local_unnamed_addr constant i32* @global_var_43004c
@global_var_42bf08 = constant i32 59
@global_var_42be80 = constant i32 67305985
@global_var_42b46c = constant i32 2097184
@global_var_433370 = local_unnamed_addr global i32* @global_var_42b46c
@global_var_42bdc0 = local_unnamed_addr constant i32 4243495
@global_var_434be4 = local_unnamed_addr global i32 0
@global_var_434be8 = global i32 0
@global_var_431798 = constant i32 -2
@global_var_4317b8 = constant i32 -2
@global_var_4317d8 = constant i32 -2
@global_var_431778 = constant i32 -2
@global_var_433374 = local_unnamed_addr global i32 -1
@global_var_434cc0 = local_unnamed_addr global i32 0
@global_var_4317f8 = constant i32 -2
@global_var_434bf0 = global i32 0
@global_var_42bf28 = external constant i32
@global_var_42bf78 = local_unnamed_addr constant [35 x i16] %wide-string
@global_var_42bfc0 = local_unnamed_addr constant [32 x i16] %wide-string
@global_var_42a998 = local_unnamed_addr constant [30 x i16] %wide-string
@global_var_42c000 = local_unnamed_addr constant [28 x i16] %wide-string
@global_var_42c038 = local_unnamed_addr constant [36 x i16] %wide-string
@global_var_42c080 = local_unnamed_addr constant [45 x i16] %wide-string
@global_var_42c0e0 = local_unnamed_addr constant [38 x i16] %wide-string
@global_var_42c12c = local_unnamed_addr constant [30 x i16] %wide-string
@global_var_42a9d4 = local_unnamed_addr constant [29 x i16] %wide-string
@global_var_42c168 = local_unnamed_addr constant [31 x i16] %wide-string
@global_var_42c1a8 = local_unnamed_addr constant [29 x i16] %wide-string
@global_var_42c1e4 = local_unnamed_addr constant [30 x i16] %wide-string
@global_var_42c220 = local_unnamed_addr constant [39 x i16] %wide-string
@global_var_42c270 = local_unnamed_addr constant [43 x i16] %wide-string
@global_var_42c2c8 = local_unnamed_addr constant [43 x i16] %wide-string
@global_var_42c320 = local_unnamed_addr constant [35 x i16] %wide-string
@global_var_42c368 = local_unnamed_addr constant [39 x i16] %wide-string
@global_var_42a984 = local_unnamed_addr constant [9 x i16] %wide-string
@global_var_42aa10 = local_unnamed_addr constant [9 x i16] %wide-string
@global_var_42c3b8 = local_unnamed_addr constant [7 x i16] %wide-string
@global_var_42c3cc = constant [16 x i8] c"AreFileApisANSI\00"
@global_var_42c3c8 = constant i32 18
@global_var_42c3ec = constant [20 x i8] c"EnumSystemLocalesEx\00"
@global_var_42c3e4 = constant i32 4
@global_var_4286a4 = constant [16 x i8] c"GetLocaleInfoEx\00"
@global_var_42c438 = constant [25 x i8] c"GetUserDefaultLocaleName\00"
@global_var_428370 = constant [28 x i8] c"InitializeCriticalSectionEx\00"
@global_var_42c464 = constant [18 x i8] c"IsValidLocaleName\00"
@global_var_42c488 = constant [17 x i8] c"LCIDToLocaleName\00"
@global_var_42c478 = constant i32 4
@global_var_4286b4 = constant [14 x i8] c"LCMapStringEx\00"
@global_var_42c4a4 = constant [17 x i8] c"LocaleNameToLCID\00"
@global_var_42c49c = constant i32 4
@global_var_434cc4 = local_unnamed_addr global i32 0
@global_var_42c420 = constant i32 0
@global_var_4284e8 = constant [20 x i8] c"GetCurrentPackageId\00"
@global_var_431858 = constant i32 -2
@global_var_431898 = constant i32 -2
@global_var_434edc = local_unnamed_addr global i32 0
@global_var_431958 = constant i32 -2
@global_var_434ee8 = local_unnamed_addr global i32 0
@global_var_431938 = constant i32 -28
@global_var_42cbe6 = local_unnamed_addr constant i32 0
@global_var_431998 = constant i32 -2
@global_var_434fbc = local_unnamed_addr global i32 0
@global_var_434fc0 = local_unnamed_addr global i32 0
@global_var_434fb8 = local_unnamed_addr global i32 0
@global_var_434fc4 = global i32 0
@global_var_433608 = global i32 0
@global_var_433710 = global i32 0
@global_var_433a2f = global i32 1127747584
@global_var_431978 = constant i32 -2
@global_var_433a31 = constant [3 x i8] c"8C\00"
@global_var_434a98 = local_unnamed_addr global i32 0
@global_var_42e848 = constant i32 1410065408
@global_var_42f1e4 = constant i32 487260709
@global_var_42f228 = constant [6 x i8] c"1#IND\00"
@global_var_42f220 = constant [7 x i8] c"1#SNAN\00"
@global_var_42f218 = constant [7 x i8] c"1#QNAN\00"
@global_var_42f210 = constant [6 x i8] c"1#INF\00"
@global_var_42f240 = local_unnamed_addr constant [6 x i8] c"log10\00"
@global_var_434ff4 = local_unnamed_addr global i32 0
@global_var_431000 = local_unnamed_addr constant i32 429065506
@global_var_430ef8 = local_unnamed_addr constant i32 429065506
@global_var_430df0 = local_unnamed_addr constant i32 429065506
@global_var_430e48 = local_unnamed_addr constant i32 429065506
@global_var_430d18 = local_unnamed_addr constant i32 429065506
@global_var_431058 = local_unnamed_addr constant i32 429065506
@global_var_430f50 = local_unnamed_addr constant i32 429065506
@global_var_430d98 = local_unnamed_addr constant i32 429065506
@global_var_430ea0 = local_unnamed_addr constant i32 429065506
@global_var_430fa8 = local_unnamed_addr constant i32 429065506
@global_var_4340c0 = local_unnamed_addr global i32 0
@global_var_4341b4 = local_unnamed_addr global i32 0
@global_var_4341ac = local_unnamed_addr global i32 0
@global_var_4341f8 = local_unnamed_addr global i32 0
@global_var_4341f0 = local_unnamed_addr global i32 0
@global_var_434308 = local_unnamed_addr global i32 0
@global_var_4342b0 = local_unnamed_addr global i32 0
@global_var_4343a9 = local_unnamed_addr global i32 0
@global_var_4343a8 = local_unnamed_addr global i32 0
@2 = external global i32
@global_var_4342b8 = external global i8*
@global_var_436000 = external global i8*
@global_var_4272b4 = local_unnamed_addr constant i8 0
@global_var_4340b0 = global void ()* null
@global_var_427710 = external local_unnamed_addr constant i128
@global_var_434500 = local_unnamed_addr global i8 0
@global_var_434504 = local_unnamed_addr global %_RTL_CRITICAL_SECTION* null
@global_var_434880 = external global i8*
@global_var_42a850 = local_unnamed_addr constant double 1.000000e+00
@global_var_433478 = local_unnamed_addr global i8 -2
@global_var_434a88 = local_unnamed_addr global i8 0
@global_var_434a8c = local_unnamed_addr global i8** null
@global_var_434bdc = external local_unnamed_addr global i8*
@global_var_434ac0 = external global i8*
@global_var_434bd4 = external local_unnamed_addr global i8*
@global_var_433470 = global i16* inttoptr (i32 67 to i16*)
@global_var_42bf10 = constant i16* inttoptr (i32 67 to i16*)
@global_var_434c40 = external global i8*
@3 = internal constant [2 x i8] c"\04\00"
@global_var_42c430 = constant i8* getelementptr inbounds ([2 x i8], [2 x i8]* @3, i32 0, i32 0)
@4 = internal constant [2 x i8] c"\04\00"
@global_var_42c428 = constant i8* getelementptr inbounds ([2 x i8], [2 x i8]* @4, i32 0, i32 0)
@5 = internal constant [2 x i8] c"\04\00"
@global_var_42c45c = constant i8* getelementptr inbounds ([2 x i8], [2 x i8]* @5, i32 0, i32 0)
@global_var_42c454 = constant %_RTL_CRITICAL_SECTION* inttoptr (i32 8 to %_RTL_CRITICAL_SECTION*)
@6 = internal constant [2 x i8] c"\05\00"
@global_var_42c480 = constant i8* getelementptr inbounds ([2 x i8], [2 x i8]* @6, i32 0, i32 0)
@global_var_433a38 = external global i8*
@global_var_42bd0c = local_unnamed_addr constant i64 38654705667
@global_var_42bd10 = local_unnamed_addr constant i64 32370090473160713
@global_var_42cbde = local_unnamed_addr constant double 1.000000e+00
@global_var_42cbd4 = local_unnamed_addr constant x86_fp80 0xK3FFEC90FD7E45803CD14
@global_var_434fd4 = local_unnamed_addr global i8 0
@7 = internal constant [2 x i8] c"0\00"
@global_var_42f20c = constant i8* getelementptr inbounds ([2 x i8], [2 x i8]* @7, i32 0, i32 0)
@global_var_42f14e = external constant i8*
@global_var_42f14f = external constant i8*
@global_var_42f14c = constant i16* inttoptr (i32 20633 to i16*)
@global_var_42f3aa = local_unnamed_addr constant x86_fp80 0xKFFFF8000000000000000
@global_var_42f2a0 = external local_unnamed_addr constant i128
@global_var_42f2b0 = external local_unnamed_addr constant i128
@global_var_42f310 = external local_unnamed_addr constant i128
@global_var_42f2c0 = external local_unnamed_addr constant i128
@global_var_42f2d0 = external local_unnamed_addr constant i128
@global_var_42f810 = constant i128* null
@global_var_42f400 = constant i128* null
@global_var_42f360 = external local_unnamed_addr constant i128
@global_var_42f370 = external local_unnamed_addr constant i128
@global_var_42f380 = external local_unnamed_addr constant i128
@global_var_42f2e0 = external local_unnamed_addr constant i128
@global_var_42f2f0 = constant i128* null
@global_var_42f390 = external local_unnamed_addr constant i128
@global_var_42f320 = external local_unnamed_addr constant i128
@global_var_42f348 = local_unnamed_addr constant double 0x7FF0000000000000
@global_var_42f340 = local_unnamed_addr constant i64 -4503599627370496
@global_var_42f330 = local_unnamed_addr constant i64 4841369599423283200
@global_var_42f3a0 = local_unnamed_addr constant x86_fp80 0xK7FFF8000000000000000
@global_var_42f3be = local_unnamed_addr constant x86_fp80 0xK400DFFFF000000000000
@global_var_42f3d2 = local_unnamed_addr constant double 5.000000e-01
@vtable_4273c4 = local_unnamed_addr global %vtable_4273c4_type { i32 (i32)* @"??_Gexception@std@@UAEPAXI@Z", i32 ()* @"?what@exception@std@@UBEPBDXZ" }
@vtable_4273e8 = local_unnamed_addr global %vtable_4273e8_type { i32 (i32)* @"??_G__non_rtti_object@std@@UAEPAXI@Z", i32 ()* @"?what@exception@std@@UBEPBDXZ" }
@global_var_42743c = constant %vtable_42743c_type { i32 (i32)* @"??_G?$shared_ptr@V__ExceptionPtr@@@std@@QAEPAXI@Z.20", i32 ()* @function_405850, i32 ()* @"?_Decref@facet@locale@std@@UAEPAV_Facet_base@3@XZ" }
@global_var_4274c8 = constant %vtable_4274c8_type { i32 (i32)* @"??_G_System_error@std@@UAEPAXI@Z", i32 ()* @"?what@exception@std@@UBEPBDXZ" }
@global_var_4274d8 = constant %vtable_4274d8_type { i32 (i32)* @"??_G_System_error@std@@UAEPAXI@Z.23", i32 ()* @"?what@exception@std@@UBEPBDXZ" }
@vtable_427508 = local_unnamed_addr global %vtable_427508_type { i32 (i32)* @"??_G_Generic_error_category@std@@UAEPAXI@Z.17", i32 ()* @"?_Getfalse@_Locinfo@std@@QBEPBDXZ.31", i32 (i32, i32)* @function_408300, i32 (i32)* @"?default_error_condition@error_category@std@@UBE?AVerror_condition@2@H@Z", i32 (i32*, i32)* @"?equivalent@error_category@std@@UBE_NABVerror_code@2@H@Z", i32 (i32, i32)* @function_407c70 }
@vtable_427548 = local_unnamed_addr global %vtable_427548_type { i32 (i32)* @"??_G_System_error@std@@UAEPAXI@Z.21", i32 ()* @"?what@exception@std@@UBEPBDXZ" }
@vtable_4275a4 = local_unnamed_addr global %vtable_4275a4_type { i32 (i32)* @"??_G?$basic_ios@DU?$char_traits@D@std@@@std@@UAEPAXI@Z" }
@global_var_4275ac = constant %vtable_4275ac_type { i32 (i32)* @function_404159 }
@global_var_4275fc = constant %vtable_4275fc_type { i32 (i32)* @"??_G?$basic_filebuf@DU?$char_traits@D@std@@@std@@UAEPAXI@Z", i32 ()* @"?_Lock@?$basic_filebuf@DU?$char_traits@D@std@@@std@@UAEXXZ", i32 ()* @"?_Lock@?$basic_filebuf@DU?$char_traits@D@std@@@std@@UAEXXZ.27", i32 (i32)* @function_4084d0, i32 (i32)* @"?pbackfail@?$basic_filebuf@DU?$char_traits@D@std@@@std@@MAEHH@Z", i32 ()* @function_4092f0, i32 ()* @function_409880, i32 ()* @function_4095a0, i32 (i32, i32, i32)* @function_409a80, i32 (i32, i32, i32)* @function_409bc0, i32 (i64, i32, i32)* @"?seekoff@?$basic_filebuf@DU?$char_traits@D@std@@@std@@MAE?AV?$fpos@U_Mbstatet@@@2@_JHH@Z", i32 (i32, i32)* @"?seekpos@?$basic_filebuf@DU?$char_traits@D@std@@@std@@MAE?AV?$fpos@U_Mbstatet@@@2@V32@H@Z", i32 (i8*, i64)* @"?setbuf@?$basic_filebuf@DU?$char_traits@D@std@@@std@@MAEPAV?$basic_streambuf@DU?$char_traits@D@std@@@2@PAD_J@Z", i32 ()* @function_409480, i32 (i32*)* @"?imbue@?$basic_filebuf@DU?$char_traits@D@std@@@std@@MAEXABVlocale@2@@Z" }
@global_var_42763c = constant %vtable_42763c_type { i32 ()* @function_404151 }
@global_var_4276bc = constant %vtable_4276bc_type { i32 (i32)* @function_404310, i32 ()* @function_405850, i32 ()* @"?_Decref@facet@locale@std@@UAEPAV_Facet_base@3@XZ", i32 ()* @function_407150, i32 ()* @function_4079d0, i32 (i32)* @function_407190, i32 (i32)* @function_407170, i32 (i32)* @function_407ad0 }
@vtable_42771c = local_unnamed_addr global %vtable_42771c_type { i32 (i32)* @"??_G__non_rtti_object@std@@UAEPAXI@Z.37", i32 ()* @"?what@exception@std@@UBEPBDXZ" }
@vtable_427738 = local_unnamed_addr global %vtable_427738_type { i32 (i32)* @"??_G__non_rtti_object@std@@UAEPAXI@Z.37", i32 ()* @"?what@exception@std@@UBEPBDXZ" }
@vtable_427750 = local_unnamed_addr global %vtable_427750_type { i32 (i32)* @"??_G__non_rtti_object@std@@UAEPAXI@Z.37", i32 ()* @"?what@exception@std@@UBEPBDXZ" }
@global_var_42831c = constant %vtable_42831c_type { i32 (i32)* @function_40aa34 }
@vtable_42a904 = local_unnamed_addr global %vtable_42a904_type { i32 (i32)* @"??_G_Ref_count_base@std@@UAEPAXI@Z" }
@vtable_42a90c = local_unnamed_addr global %vtable_42a90c_type { i32 (i32)* @"??_G__non_rtti_object@std@@UAEPAXI@Z.37", i32 ()* @"?what@exception@std@@UBEPBDXZ" }

define i32 @function_401000(i32* %arg1, i32 %arg2, i32 %arg3, i32 %arg4) local_unnamed_addr {
dec_label_pc_401000:
  %esi.0.reg2mem = alloca i32, !insn.addr !0
  %0 = call i32 @__decompiler_undefined_function_0()
  %1 = call i32 @__decompiler_undefined_function_0()
  %2 = call i32 @__decompiler_undefined_function_0()
  %3 = ptrtoint i32* %arg1 to i32
  %4 = icmp eq i32 %arg2, 0, !insn.addr !1
  %5 = icmp eq i1 %4, false, !insn.addr !2
  %6 = add i32 %3, 32
  %spec.select = select i1 %5, i32 %arg2, i32 %6
  %7 = add i32 %3, 48, !insn.addr !3
  %8 = inttoptr i32 %7 to i32*, !insn.addr !3
  store i32 %arg3, i32* %8, align 4, !insn.addr !3
  %9 = add i32 %3, 52, !insn.addr !4
  %10 = inttoptr i32 %9 to i32*, !insn.addr !4
  store i32 %arg4, i32* %10, align 4, !insn.addr !4
  %11 = add i32 %3, 24, !insn.addr !5
  %12 = call i32 @___vcrt_EventRegister(i32 %spec.select, i32 4198691, i32 %3, i32 %11, i32 %0, i32 %1, i32 %2), !insn.addr !6
  %13 = icmp eq i32 %12, 0, !insn.addr !7
  br i1 %13, label %dec_label_pc_401044, label %dec_label_pc_401037, !insn.addr !8

dec_label_pc_401037:                              ; preds = %dec_label_pc_401000
  %14 = icmp slt i32 %12, 1
  store i32 %12, i32* %esi.0.reg2mem, !insn.addr !9
  br i1 %14, label %dec_label_pc_401057, label %dec_label_pc_401039, !insn.addr !9

dec_label_pc_401039:                              ; preds = %dec_label_pc_401037
  %15 = and i32 %12, 65535, !insn.addr !10
  %16 = or i32 %15, -2147024896, !insn.addr !11
  store i32 %16, i32* %esi.0.reg2mem, !insn.addr !12
  br label %dec_label_pc_401057, !insn.addr !12

dec_label_pc_401044:                              ; preds = %dec_label_pc_401000
  %17 = add i32 %3, 4, !insn.addr !13
  %18 = inttoptr i32 %17 to i32*, !insn.addr !13
  %19 = load i32, i32* %18, align 4, !insn.addr !13
  %20 = inttoptr i32 %19 to i16*, !insn.addr !14
  %21 = load i16, i16* %20, align 2, !insn.addr !14
  %22 = zext i16 %21 to i32, !insn.addr !14
  %23 = call i32 @function_40105d(i32 %3, i32 2, i32 %19, i32 %22), !insn.addr !15
  store i32 0, i32* %esi.0.reg2mem, !insn.addr !16
  br label %dec_label_pc_401057, !insn.addr !16

dec_label_pc_401057:                              ; preds = %dec_label_pc_401044, %dec_label_pc_401039, %dec_label_pc_401037
  %esi.0.reload = load i32, i32* %esi.0.reg2mem
  ret i32 %esi.0.reload, !insn.addr !17
}

define i32 @function_40105d(i32 %arg1, i32 %arg2, i32 %arg3, i32 %arg4) local_unnamed_addr {
dec_label_pc_40105d:
  %0 = call i32 @__decompiler_undefined_function_0()
  %1 = add i32 %arg1, 28, !insn.addr !18
  %2 = inttoptr i32 %1 to i32*, !insn.addr !18
  %3 = load i32, i32* %2, align 4, !insn.addr !18
  %4 = add i32 %arg1, 24, !insn.addr !19
  %5 = inttoptr i32 %4 to i32*, !insn.addr !19
  %6 = load i32, i32* %5, align 4, !insn.addr !19
  %7 = call i32 @___vcrt_EventSetInformation(i32 %6, i32 %3, i32 %arg2, i32 %arg3, i32 %arg4, i32 %0), !insn.addr !20
  %8 = icmp slt i32 %7, 1
  %9 = and i32 %7, 65535
  %10 = or i32 %9, -2147024896
  %eax.0 = select i1 %8, i32 %7, i32 %10
  ret i32 %eax.0, !insn.addr !21
}

define i32 @function_401088(i32* %arg1) local_unnamed_addr {
dec_label_pc_401088:
  %0 = call i32 @__decompiler_undefined_function_0()
  %1 = call i32 @__decompiler_undefined_function_0()
  %2 = ptrtoint i32* %arg1 to i32
  %3 = add i32 %2, 28, !insn.addr !22
  %4 = inttoptr i32 %3 to i32*, !insn.addr !22
  %5 = load i32, i32* %4, align 4, !insn.addr !22
  %6 = add i32 %2, 24, !insn.addr !23
  %7 = inttoptr i32 %6 to i32*, !insn.addr !23
  %8 = load i32, i32* %7, align 4, !insn.addr !23
  %9 = call i32 @___vcrt_EventUnregister(i32 %8, i32 %5, i32 %0, i32 %1), !insn.addr !24
  store i32 0, i32* %7, align 4, !insn.addr !25
  store i32 0, i32* %4, align 4, !insn.addr !26
  ret i32 %9, !insn.addr !27
}

define i32 @function_4010a7(i32* %arg1, i8* %arg2) local_unnamed_addr {
dec_label_pc_4010a7:
  %esi.0.reg2mem = alloca i32, !insn.addr !28
  %edx.1.reg2mem = alloca i32, !insn.addr !28
  %edx.0.reg2mem = alloca i32, !insn.addr !28
  %0 = ptrtoint i8* %arg2 to i32
  %1 = icmp eq i8* %arg2, null, !insn.addr !29
  store i32 %0, i32* %edx.0.reg2mem, !insn.addr !30
  store i32 1, i32* %edx.1.reg2mem, !insn.addr !30
  store i32 ptrtoint (i32* @global_var_427448 to i32), i32* %esi.0.reg2mem, !insn.addr !30
  br i1 %1, label %dec_label_pc_4010c9, label %dec_label_pc_4010c0, !insn.addr !30

dec_label_pc_4010c0:                              ; preds = %dec_label_pc_4010a7, %dec_label_pc_4010c0
  %edx.0.reload = load i32, i32* %edx.0.reg2mem
  %2 = inttoptr i32 %edx.0.reload to i8*, !insn.addr !31
  %3 = load i8, i8* %2, align 1, !insn.addr !31
  %4 = add i32 %edx.0.reload, 1, !insn.addr !32
  %5 = icmp eq i8 %3, 0, !insn.addr !33
  %6 = icmp eq i1 %5, false, !insn.addr !34
  store i32 %4, i32* %edx.0.reg2mem, !insn.addr !34
  br i1 %6, label %dec_label_pc_4010c0, label %dec_label_pc_4010c7, !insn.addr !34

dec_label_pc_4010c7:                              ; preds = %dec_label_pc_4010c0
  %7 = sub i32 1, %0, !insn.addr !35
  %phitmp = add i32 %7, %edx.0.reload
  store i32 %phitmp, i32* %edx.1.reg2mem, !insn.addr !35
  store i32 %0, i32* %esi.0.reg2mem, !insn.addr !35
  br label %dec_label_pc_4010c9, !insn.addr !35

dec_label_pc_4010c9:                              ; preds = %dec_label_pc_4010c7, %dec_label_pc_4010a7
  %8 = ptrtoint i32* %arg1 to i32
  %esi.0.reload = load i32, i32* %esi.0.reg2mem
  %edx.1.reload = load i32, i32* %edx.1.reg2mem
  %9 = add i32 %8, 4, !insn.addr !36
  %10 = inttoptr i32 %9 to i32*, !insn.addr !36
  store i32 0, i32* %10, align 4, !insn.addr !36
  %11 = add i32 %8, 12, !insn.addr !37
  %12 = inttoptr i32 %11 to i32*, !insn.addr !37
  store i32 0, i32* %12, align 4, !insn.addr !37
  store i32 %esi.0.reload, i32* %arg1, align 4, !insn.addr !38
  %13 = add i32 %8, 8, !insn.addr !39
  %14 = inttoptr i32 %13 to i32*, !insn.addr !39
  store i32 %edx.1.reload, i32* %14, align 4, !insn.addr !39
  ret i32 %edx.1.reload, !insn.addr !40
}

define i32 @function_4010df(i32* %arg1, i32* %arg2) local_unnamed_addr {
dec_label_pc_4010df:
  %esi.0.reg2mem = alloca i32, !insn.addr !41
  %edx.1.reg2mem = alloca i32, !insn.addr !41
  %edx.0.reg2mem = alloca i32, !insn.addr !41
  %0 = ptrtoint i32* %arg2 to i32
  %1 = icmp eq i32* %arg2, null, !insn.addr !42
  store i32 %0, i32* %edx.0.reg2mem, !insn.addr !43
  store i32 2, i32* %edx.1.reg2mem, !insn.addr !43
  store i32 ptrtoint (i32* @global_var_429720 to i32), i32* %esi.0.reg2mem, !insn.addr !43
  br i1 %1, label %dec_label_pc_40110a, label %dec_label_pc_4010fb, !insn.addr !43

dec_label_pc_4010fb:                              ; preds = %dec_label_pc_4010df, %dec_label_pc_4010fb
  %edx.0.reload = load i32, i32* %edx.0.reg2mem
  %2 = inttoptr i32 %edx.0.reload to i16*, !insn.addr !44
  %3 = load i16, i16* %2, align 2, !insn.addr !44
  %4 = add i32 %edx.0.reload, 2, !insn.addr !45
  %5 = icmp eq i16 %3, 0, !insn.addr !46
  %6 = icmp eq i1 %5, false, !insn.addr !47
  store i32 %4, i32* %edx.0.reg2mem, !insn.addr !47
  br i1 %6, label %dec_label_pc_4010fb, label %dec_label_pc_401106, !insn.addr !47

dec_label_pc_401106:                              ; preds = %dec_label_pc_4010fb
  %7 = sub i32 %4, %0
  %phitmp = and i32 %7, -2
  store i32 %phitmp, i32* %edx.1.reg2mem, !insn.addr !48
  store i32 %0, i32* %esi.0.reg2mem, !insn.addr !48
  br label %dec_label_pc_40110a, !insn.addr !48

dec_label_pc_40110a:                              ; preds = %dec_label_pc_401106, %dec_label_pc_4010df
  %8 = ptrtoint i32* %arg1 to i32
  %esi.0.reload = load i32, i32* %esi.0.reg2mem
  %edx.1.reload = load i32, i32* %edx.1.reg2mem
  %9 = add i32 %8, 4, !insn.addr !49
  %10 = inttoptr i32 %9 to i32*, !insn.addr !49
  store i32 0, i32* %10, align 4, !insn.addr !49
  %11 = add i32 %8, 12, !insn.addr !50
  %12 = inttoptr i32 %11 to i32*, !insn.addr !50
  store i32 0, i32* %12, align 4, !insn.addr !50
  store i32 %esi.0.reload, i32* %arg1, align 4, !insn.addr !51
  %13 = add i32 %8, 8, !insn.addr !52
  %14 = inttoptr i32 %13 to i32*, !insn.addr !52
  store i32 %edx.1.reload, i32* %14, align 4, !insn.addr !52
  ret i32 %edx.1.reload, !insn.addr !53
}

define i32 @function_401123(i32 %arg1, i32 %arg2, i32 %arg3, i32 %arg4, i32 %arg5, i32 %arg6, i32 %arg7, i32 %arg8, i32 %arg9) local_unnamed_addr {
dec_label_pc_401123:
  %eax.1.reg2mem = alloca i32, !insn.addr !54
  %0 = icmp eq i32 %arg9, 0, !insn.addr !55
  store i32 0, i32* %eax.1.reg2mem, !insn.addr !56
  br i1 %0, label %dec_label_pc_401197, label %dec_label_pc_40112d, !insn.addr !56

dec_label_pc_40112d:                              ; preds = %dec_label_pc_401123
  %1 = icmp eq i32 %arg2, 0, !insn.addr !57
  br i1 %1, label %dec_label_pc_40116a, label %dec_label_pc_401140, !insn.addr !58

dec_label_pc_401140:                              ; preds = %dec_label_pc_40112d
  %2 = icmp eq i32 %arg2, 1, !insn.addr !59
  %3 = icmp eq i1 %2, false, !insn.addr !60
  br i1 %3, label %dec_label_pc_401170, label %dec_label_pc_401145, !insn.addr !60

dec_label_pc_401145:                              ; preds = %dec_label_pc_401140
  %4 = trunc i32 %arg3 to i8, !insn.addr !61
  %5 = icmp eq i8 %4, 0, !insn.addr !61
  %6 = and i32 %arg3, 255
  %7 = add nuw nsw i32 %6, 1
  %storemerge = select i1 %5, i32 256, i32 %7
  %8 = inttoptr i32 %arg9 to i32*, !insn.addr !62
  store i32 %storemerge, i32* %8, align 4, !insn.addr !62
  %9 = add i32 %arg9, 8, !insn.addr !63
  %10 = inttoptr i32 %9 to i32*, !insn.addr !63
  store i32 %arg4, i32* %10, align 4, !insn.addr !63
  %11 = add i32 %arg9, 12, !insn.addr !64
  %12 = inttoptr i32 %11 to i32*, !insn.addr !64
  store i32 %arg5, i32* %12, align 4, !insn.addr !64
  %13 = add i32 %arg9, 16, !insn.addr !65
  %14 = inttoptr i32 %13 to i32*, !insn.addr !65
  store i32 %arg6, i32* %14, align 4, !insn.addr !65
  %15 = add i32 %arg9, 20, !insn.addr !66
  %16 = inttoptr i32 %15 to i32*, !insn.addr !66
  store i32 %arg7, i32* %16, align 4, !insn.addr !66
  br label %dec_label_pc_401170, !insn.addr !67

dec_label_pc_40116a:                              ; preds = %dec_label_pc_40112d
  %17 = inttoptr i32 %arg9 to i32*, !insn.addr !68
  store i32 0, i32* %17, align 4, !insn.addr !68
  br label %dec_label_pc_401170, !insn.addr !68

dec_label_pc_401170:                              ; preds = %dec_label_pc_401140, %dec_label_pc_40116a, %dec_label_pc_401145
  %18 = add i32 %arg9, 48, !insn.addr !69
  %19 = inttoptr i32 %18 to i32*, !insn.addr !69
  %20 = load i32, i32* %19, align 4, !insn.addr !69
  %21 = icmp eq i32 %20, 0, !insn.addr !70
  store i32 %arg9, i32* %eax.1.reg2mem, !insn.addr !71
  br i1 %21, label %dec_label_pc_401197, label %dec_label_pc_401178, !insn.addr !71

dec_label_pc_401178:                              ; preds = %dec_label_pc_401170
  %22 = call i32 @"@_guard_check_icall@4"(), !insn.addr !72
  store i32 %22, i32* %eax.1.reg2mem, !insn.addr !73
  br label %dec_label_pc_401197, !insn.addr !73

dec_label_pc_401197:                              ; preds = %dec_label_pc_401170, %dec_label_pc_401178, %dec_label_pc_401123
  %eax.1.reload = load i32, i32* %eax.1.reg2mem
  ret i32 %eax.1.reload, !insn.addr !74
}

define i32 @function_40119b(i32 %arg1, i32 %arg2, i32 %arg3, i32 %arg4) local_unnamed_addr {
dec_label_pc_40119b:
  %eax.1.reg2mem = alloca i32, !insn.addr !75
  %eax.0.reg2mem = alloca i32, !insn.addr !75
  %0 = or i32 %arg3, %arg2, !insn.addr !76
  %1 = icmp eq i32 %0, 0, !insn.addr !76
  store i32 0, i32* %eax.1.reg2mem, !insn.addr !77
  br i1 %1, label %dec_label_pc_4011d3, label %dec_label_pc_4011a6, !insn.addr !77

dec_label_pc_4011a6:                              ; preds = %dec_label_pc_40119b
  %2 = add i32 %arg1, 8, !insn.addr !78
  %3 = inttoptr i32 %2 to i32*, !insn.addr !78
  %4 = load i32, i32* %3, align 4, !insn.addr !78
  %5 = add i32 %arg1, 12, !insn.addr !79
  %6 = inttoptr i32 %5 to i32*, !insn.addr !79
  %7 = load i32, i32* %6, align 4, !insn.addr !79
  %8 = and i32 %4, %arg2, !insn.addr !80
  %9 = and i32 %7, %arg3, !insn.addr !81
  %10 = or i32 %9, %8, !insn.addr !82
  %11 = icmp eq i32 %10, 0, !insn.addr !82
  store i32 %9, i32* %eax.0.reg2mem, !insn.addr !83
  br i1 %11, label %dec_label_pc_4011cf, label %dec_label_pc_4011b9, !insn.addr !83

dec_label_pc_4011b9:                              ; preds = %dec_label_pc_4011a6
  %12 = add i32 %arg1, 16, !insn.addr !84
  %13 = inttoptr i32 %12 to i32*, !insn.addr !84
  %14 = load i32, i32* %13, align 4, !insn.addr !84
  %15 = and i32 %14, %arg2, !insn.addr !85
  %16 = icmp eq i32 %15, %14, !insn.addr !86
  %17 = icmp eq i1 %16, false, !insn.addr !87
  store i32 %15, i32* %eax.0.reg2mem, !insn.addr !87
  br i1 %17, label %dec_label_pc_4011cf, label %dec_label_pc_4011ca, !insn.addr !87

dec_label_pc_4011ca:                              ; preds = %dec_label_pc_4011b9
  %18 = add i32 %arg1, 20, !insn.addr !88
  %19 = inttoptr i32 %18 to i32*, !insn.addr !88
  %20 = load i32, i32* %19, align 4, !insn.addr !88
  %21 = and i32 %20, %arg3, !insn.addr !89
  %22 = icmp eq i32 %21, %20, !insn.addr !90
  store i32 %15, i32* %eax.0.reg2mem, !insn.addr !91
  store i32 %15, i32* %eax.1.reg2mem, !insn.addr !91
  br i1 %22, label %dec_label_pc_4011d3, label %dec_label_pc_4011cf, !insn.addr !91

dec_label_pc_4011cf:                              ; preds = %dec_label_pc_4011ca, %dec_label_pc_4011b9, %dec_label_pc_4011a6
  %eax.0.reload = load i32, i32* %eax.0.reg2mem
  %23 = and i32 %eax.0.reload, -256, !insn.addr !92
  ret i32 %23, !insn.addr !93

dec_label_pc_4011d3:                              ; preds = %dec_label_pc_4011ca, %dec_label_pc_40119b
  %eax.1.reload = load i32, i32* %eax.1.reg2mem
  %24 = and i32 %eax.1.reload, -256, !insn.addr !94
  %25 = or i32 %24, 1, !insn.addr !94
  ret i32 %25, !insn.addr !95
}

define i32 @function_4011d7(i32 %arg1, i32* %arg2, i32 %arg3, i32 %arg4, i32 %arg5, i32* %arg6) local_unnamed_addr {
dec_label_pc_4011d7:
  %0 = call i32 @__decompiler_undefined_function_0()
  %1 = call i32 @__decompiler_undefined_function_0()
  %2 = ptrtoint i32* %arg6 to i32
  %3 = ptrtoint i32* %arg2 to i32
  %stack_var_-20 = alloca i32, align 4
  %4 = sub i32 %3, ptrtoint (i32* @global_var_430808 to i32), !insn.addr !96
  %5 = or i32 %4, 184549376, !insn.addr !97
  %6 = load i32, i32* %arg2, align 4, !insn.addr !98
  %7 = add i32 %3, 4, !insn.addr !99
  %8 = inttoptr i32 %7 to i32*, !insn.addr !99
  %9 = load i32, i32* %8, align 4, !insn.addr !99
  %10 = add i32 %3, 8, !insn.addr !100
  %11 = inttoptr i32 %10 to i32*, !insn.addr !100
  %12 = load i32, i32* %11, align 4, !insn.addr !100
  %13 = add i32 %3, 12, !insn.addr !101
  store i32 %5, i32* %stack_var_-20, align 4, !insn.addr !102
  %14 = add i32 %arg1, 4, !insn.addr !103
  %15 = inttoptr i32 %14 to i32*, !insn.addr !103
  %16 = load i32, i32* %15, align 4, !insn.addr !103
  %17 = add i32 %2, 4, !insn.addr !104
  %18 = inttoptr i32 %17 to i32*, !insn.addr !104
  store i32 0, i32* %18, align 4, !insn.addr !104
  store i32 %16, i32* %arg6, align 4, !insn.addr !105
  %19 = load i32, i32* %15, align 4, !insn.addr !106
  %20 = inttoptr i32 %19 to i16*, !insn.addr !107
  %21 = load i16, i16* %20, align 2, !insn.addr !107
  %22 = zext i16 %21 to i32, !insn.addr !107
  %23 = add i32 %2, 20, !insn.addr !108
  %24 = inttoptr i32 %23 to i32*, !insn.addr !108
  store i32 0, i32* %24, align 4, !insn.addr !108
  %25 = add i32 %2, 8, !insn.addr !109
  %26 = inttoptr i32 %25 to i32*, !insn.addr !109
  store i32 %22, i32* %26, align 4, !insn.addr !109
  %27 = add i32 %2, 12, !insn.addr !110
  %28 = inttoptr i32 %27 to i32*, !insn.addr !110
  store i32 2, i32* %28, align 4, !insn.addr !110
  %29 = add i32 %2, 16, !insn.addr !111
  %30 = inttoptr i32 %29 to i32*, !insn.addr !111
  store i32 %13, i32* %30, align 4, !insn.addr !111
  %31 = inttoptr i32 %13 to i16*, !insn.addr !112
  %32 = load i16, i16* %31, align 2, !insn.addr !112
  %33 = zext i16 %32 to i32, !insn.addr !112
  %34 = add i32 %2, 24, !insn.addr !113
  %35 = inttoptr i32 %34 to i32*, !insn.addr !113
  store i32 %33, i32* %35, align 4, !insn.addr !113
  %36 = add i32 %2, 28, !insn.addr !114
  %37 = inttoptr i32 %36 to i32*, !insn.addr !114
  store i32 1, i32* %37, align 4, !insn.addr !114
  %38 = add i32 %arg1, 28, !insn.addr !115
  %39 = inttoptr i32 %38 to i32*, !insn.addr !115
  %40 = load i32, i32* %39, align 4, !insn.addr !115
  %41 = add i32 %arg1, 24, !insn.addr !116
  %42 = inttoptr i32 %41 to i32*, !insn.addr !116
  %43 = load i32, i32* %42, align 4, !insn.addr !116
  %44 = load i32, i32* %stack_var_-20, align 4, !insn.addr !117
  %45 = call i32 @___vcrt_EventWriteTransfer(i32 %43, i32 %40, i32* nonnull %stack_var_-20, i32 %arg3, i32 %arg4, i32 %arg5, i32 %2, i32 %0, i32 %44, i32 %6, i32 %9, i32 %12, i32 %1), !insn.addr !117
  ret i32 %45, !insn.addr !118
}

define i32 @function_4012c7(void ()* %func) local_unnamed_addr {
dec_label_pc_4012c7:
  %0 = call i32 @_atexit(void ()* %func), !insn.addr !119
  ret i32 %0, !insn.addr !120
}

define i32 @function_4012d3(void ()* %func) local_unnamed_addr {
dec_label_pc_4012d3:
  %0 = call i32 @_atexit(void ()* %func), !insn.addr !121
  ret i32 %0, !insn.addr !122
}

define i32 @function_4013c5() local_unnamed_addr {
dec_label_pc_4013c5:
  %0 = call i32 @"??0_Init_cout@std@@QAE@XZ"(), !insn.addr !123
  ret i32 %0, !insn.addr !123
}

define i32 @function_4013e5(void ()* %func) local_unnamed_addr {
dec_label_pc_4013e5:
  %0 = call i32 @_atexit(void ()* %func), !insn.addr !124
  ret i32 %0, !insn.addr !125
}

declare i32 @_memcpy_s(i32*, i32, i32*, i32) local_unnamed_addr

define i32 @function_401520() local_unnamed_addr {
dec_label_pc_401520:
  %0 = call i32 @__decompiler_undefined_function_0()
  %1 = call i32 @__decompiler_undefined_function_0()
  %2 = call i32 @__decompiler_undefined_function_0()
  %3 = call i32 @__decompiler_undefined_function_0()
  %4 = call i32 @function_409dd0(i8* getelementptr inbounds ([8 x i8], [8 x i8]* @global_var_42723c, i32 0, i32 0), i32 %0, i32 %1, i32 %3, i32 %2), !insn.addr !126
  ret i32 %4, !insn.addr !127
}

define i32 @function_401538() local_unnamed_addr {
dec_label_pc_401538:
  %0 = call i32 @__decompiler_undefined_function_0()
  ret i32 %0, !insn.addr !128
}

define i32 @function_40153d(i32 %arg1) local_unnamed_addr {
dec_label_pc_40153d:
  ret i32 %arg1, !insn.addr !129
}

define i32 @function_401549() local_unnamed_addr {
dec_label_pc_401549:
  %0 = call i32 @__decompiler_undefined_function_0()
  ret i32 %0, !insn.addr !130
}

define i32 @function_401550() local_unnamed_addr {
dec_label_pc_401550:
  %0 = call i32 @__decompiler_undefined_function_0()
  %1 = add i32 %0, 7, !insn.addr !131
  %2 = inttoptr i32 %1 to i32*, !insn.addr !131
  %3 = load i32, i32* %2, align 4, !insn.addr !131
  ret i32 %3, !insn.addr !132
}

define i32 @function_401561() local_unnamed_addr {
dec_label_pc_401561:
  %0 = call i32 @__decompiler_undefined_function_0()
  ret i32 %0, !insn.addr !133
}

define i32 @function_40156d() local_unnamed_addr {
dec_label_pc_40156d:
  %0 = call i32 @__decompiler_undefined_function_0()
  ret i32 %0, !insn.addr !134
}

define i32 @function_401579() local_unnamed_addr {
dec_label_pc_401579:
  %0 = call i32 @__decompiler_undefined_function_0()
  ret i32 %0, !insn.addr !135
}

define i32 @function_401580() local_unnamed_addr {
dec_label_pc_401580:
  %0 = call i32 @__decompiler_undefined_function_0()
  %1 = add i32 %0, 4, !insn.addr !136
  ret i32 %1, !insn.addr !137
}

define i32 @function_401585() local_unnamed_addr {
dec_label_pc_401585:
  %stack_var_0 = alloca i32, align 4
  %0 = ptrtoint i32* %stack_var_0 to i32, !insn.addr !138
  ret i32 %0, !insn.addr !139
}

define i32 @function_401589() local_unnamed_addr {
dec_label_pc_401589:
  ret i32 0, !insn.addr !140
}

define i32 @function_401591() local_unnamed_addr {
dec_label_pc_401591:
  ret i32 0, !insn.addr !141
}

define i32 @function_401597() local_unnamed_addr {
dec_label_pc_401597:
  %0 = call i32 @__decompiler_undefined_function_0()
  %1 = call i32 @__decompiler_undefined_function_0()
  %2 = mul i32 %1, 2, !insn.addr !142
  %3 = or i32 %2, 1, !insn.addr !143
  %4 = xor i32 %3, %0, !insn.addr !144
  ret i32 %4, !insn.addr !145
}

define i32 @function_4015a6() local_unnamed_addr {
dec_label_pc_4015a6:
  %0 = call i32 @__decompiler_undefined_function_0()
  ret i32 %0, !insn.addr !146
}

define i32 @function_4015ac() local_unnamed_addr {
dec_label_pc_4015ac:
  %0 = call i32 @__decompiler_undefined_function_0()
  %1 = call i32 @__decompiler_undefined_function_0()
  %2 = call i32 @__decompiler_undefined_function_0()
  %3 = add i32 %1, %0, !insn.addr !147
  %4 = add i32 %3, %2, !insn.addr !148
  %5 = xor i32 %4, %1, !insn.addr !149
  ret i32 %5, !insn.addr !150
}

define i32 @function_4015b4() local_unnamed_addr {
dec_label_pc_4015b4:
  %0 = call i32 @__decompiler_undefined_function_0()
  ret i32 %0, !insn.addr !151
}

define i32 @function_4015b7() local_unnamed_addr {
dec_label_pc_4015b7:
  %0 = call i32 @__decompiler_undefined_function_0()
  ret i32 %0, !insn.addr !152
}

define i32 @function_4015c1() local_unnamed_addr {
dec_label_pc_4015c1:
  %0 = call i32 @__decompiler_undefined_function_0()
  ret i32 %0, !insn.addr !153
}

define i32 @function_4015c5() local_unnamed_addr {
dec_label_pc_4015c5:
  ret i32 0, !insn.addr !154
}

define i32 @function_4015d0() local_unnamed_addr {
dec_label_pc_4015d0:
  %0 = call i32 @__decompiler_undefined_function_0()
  ret i32 %0, !insn.addr !155
}

define i32 @function_4015d5() local_unnamed_addr {
dec_label_pc_4015d5:
  %0 = call i32 @__decompiler_undefined_function_0()
  ret i32 %0, !insn.addr !156
}

define i32 @function_4015da() local_unnamed_addr {
dec_label_pc_4015da:
  %0 = call i32 @__decompiler_undefined_function_0()
  %1 = add i32 %0, 32, !insn.addr !157
  %2 = inttoptr i32 %1 to i32*, !insn.addr !157
  %3 = load i32, i32* %2, align 4, !insn.addr !157
  %4 = add i32 %3, 1, !insn.addr !158
  ret i32 %4, !insn.addr !159
}

define i32 @function_4015e6() local_unnamed_addr {
dec_label_pc_4015e6:
  %0 = call i32 @__decompiler_undefined_function_0()
  ret i32 %0, !insn.addr !160
}

define i32 @function_4015f0(i32 %arg1, i32 %arg2) local_unnamed_addr {
dec_label_pc_4015f0:
  %0 = call i32 @__decompiler_undefined_function_0()
  ret i32 %0, !insn.addr !161
}

define i32 @function_4015fa() local_unnamed_addr {
dec_label_pc_4015fa:
  %0 = call i32 @__decompiler_undefined_function_0()
  %1 = call i32 @__decompiler_undefined_function_0()
  %2 = add i32 %1, %0, !insn.addr !162
  ret i32 %2, !insn.addr !163
}

define i32 @function_4015ff() local_unnamed_addr {
dec_label_pc_4015ff:
  %0 = call i32 @__decompiler_undefined_function_0()
  ret i32 %0, !insn.addr !164
}

define i32 @function_401604() local_unnamed_addr {
dec_label_pc_401604:
  %0 = call i32 @__decompiler_undefined_function_0()
  ret i32 %0, !insn.addr !165
}

define i32 @function_40160a() local_unnamed_addr {
dec_label_pc_40160a:
  %0 = call i32 @__decompiler_undefined_function_0()
  %1 = call i32 @__decompiler_undefined_function_0()
  %2 = mul i32 %1, %0, !insn.addr !166
  ret i32 %2, !insn.addr !167
}

define i32 @function_40160e() local_unnamed_addr {
dec_label_pc_40160e:
  %0 = call i32 @__decompiler_undefined_function_0()
  ret i32 %0, !insn.addr !168
}

define i32 @function_401614() local_unnamed_addr {
dec_label_pc_401614:
  %0 = call i32 @__decompiler_undefined_function_0()
  ret i32 %0, !insn.addr !169
}

define i32 @function_401616(i32 %arg1, i32 %arg2, i32 %arg3) local_unnamed_addr {
dec_label_pc_401616:
  %0 = add i32 %arg1, 1, !insn.addr !170
  ret i32 %0, !insn.addr !171
}

define i32 @function_401628() local_unnamed_addr {
dec_label_pc_401628:
  %0 = call i32 @__decompiler_undefined_function_0()
  %1 = call i32 @__decompiler_undefined_function_0()
  %2 = xor i32 %1, %0, !insn.addr !172
  ret i32 %2, !insn.addr !173
}

define i32 @function_40163a() local_unnamed_addr {
dec_label_pc_40163a:
  %0 = call i32 @__decompiler_undefined_function_0()
  ret i32 %0, !insn.addr !174
}

define i32 @function_401661() local_unnamed_addr {
dec_label_pc_401661:
  %0 = call i32 @__decompiler_undefined_function_0()
  %1 = call i32 @__decompiler_undefined_function_0()
  %2 = mul i32 %1, %0, !insn.addr !175
  ret i32 %2, !insn.addr !176
}

define i32 @function_401677() local_unnamed_addr {
dec_label_pc_401677:
  %0 = call i32 @__decompiler_undefined_function_0()
  ret i32 %0, !insn.addr !177
}

define i32 @function_40167c() local_unnamed_addr {
dec_label_pc_40167c:
  %0 = call i32 @__decompiler_undefined_function_0()
  ret i32 %0, !insn.addr !178
}

define i32 @function_401681() local_unnamed_addr {
dec_label_pc_401681:
  ret i32 0, !insn.addr !179
}

define i32 @function_401687(i32 %arg1) local_unnamed_addr {
dec_label_pc_401687:
  %0 = call i32 @__decompiler_undefined_function_0()
  %1 = call i1 @__decompiler_undefined_function_1()
  %2 = zext i1 %1 to i32, !insn.addr !180
  %3 = add i32 %0, 2601064, !insn.addr !180
  %4 = add i32 %3, %2, !insn.addr !180
  ret i32 %4, !insn.addr !181
}

define i32 @function_40168e(i32 %arg1) local_unnamed_addr {
dec_label_pc_40168e:
  %0 = call i32 @__decompiler_undefined_function_0()
  %1 = or i32 %0, 268374698, !insn.addr !182
  ret i32 %1, !insn.addr !183
}

define i32 @function_401695() local_unnamed_addr {
dec_label_pc_401695:
  %0 = call i32 @__decompiler_undefined_function_0()
  ret i32 %0, !insn.addr !184
}

define i32 @function_40169a(i32 %arg1) local_unnamed_addr {
dec_label_pc_40169a:
  ret i32 %arg1, !insn.addr !185
}

define i32 @function_40169f() local_unnamed_addr {
dec_label_pc_40169f:
  %0 = call i32 @__decompiler_undefined_function_0()
  ret i32 %0, !insn.addr !186
}

define i32 @function_4016a3() local_unnamed_addr {
dec_label_pc_4016a3:
  %0 = call i32 @__decompiler_undefined_function_0()
  ret i32 %0, !insn.addr !187
}

define i32 @function_4016ac() local_unnamed_addr {
dec_label_pc_4016ac:
  %stack_var_-12 = alloca i32, align 4
  %0 = ptrtoint i32* %stack_var_-12 to i32, !insn.addr !188
  ret i32 %0, !insn.addr !189
}

define i32 @function_4016b4() local_unnamed_addr {
dec_label_pc_4016b4:
  %0 = call i32 @__decompiler_undefined_function_0()
  ret i32 %0, !insn.addr !190
}

define i32 @function_4016bf() local_unnamed_addr {
dec_label_pc_4016bf:
  %0 = call i32 @__decompiler_undefined_function_0()
  ret i32 %0, !insn.addr !191
}

define i32 @function_4016c3() local_unnamed_addr {
dec_label_pc_4016c3:
  ret i32 269492885, !insn.addr !192
}

define i32 @function_4016e2(i32 %arg1, i32 %arg2) local_unnamed_addr {
dec_label_pc_4016e2:
  ret i32 %arg2, !insn.addr !193
}

define i32 @function_4016ed() local_unnamed_addr {
dec_label_pc_4016ed:
  %0 = call i32 @__decompiler_undefined_function_0()
  ret i32 %0, !insn.addr !194
}

define i32 @function_4016f4() local_unnamed_addr {
dec_label_pc_4016f4:
  %0 = call i32 @__decompiler_undefined_function_0()
  ret i32 %0, !insn.addr !195
}

define i32 @function_4016f9() local_unnamed_addr {
dec_label_pc_4016f9:
  %0 = call i32 @__decompiler_undefined_function_0()
  ret i32 %0, !insn.addr !196
}

define i32 @function_4016fe() local_unnamed_addr {
dec_label_pc_4016fe:
  %0 = call i32 @__decompiler_undefined_function_0()
  ret i32 %0, !insn.addr !197
}

define i32 @function_401703(i32 %arg1, i32 %arg2) local_unnamed_addr {
dec_label_pc_401703:
  ret i32 %arg1, !insn.addr !198
}

define i32 @function_401708() local_unnamed_addr {
dec_label_pc_401708:
  %0 = call i32 @__decompiler_undefined_function_0()
  %1 = add i32 %0, 4, !insn.addr !199
  %2 = inttoptr i32 %1 to i32*, !insn.addr !200
  %3 = load i32, i32* %2, align 4, !insn.addr !200
  ret i32 %3, !insn.addr !201
}

define i32 @function_40170e() local_unnamed_addr {
dec_label_pc_40170e:
  %0 = call i32 @__decompiler_undefined_function_0()
  ret i32 %0, !insn.addr !202
}

define i32 @function_401710() local_unnamed_addr {
dec_label_pc_401710:
  %0 = call i32 @__decompiler_undefined_function_0()
  ret i32 %0, !insn.addr !203
}

define i32 @function_401713() local_unnamed_addr {
dec_label_pc_401713:
  %0 = call i32 @__decompiler_undefined_function_0()
  ret i32 %0, !insn.addr !204
}

define i32 @function_40171c() local_unnamed_addr {
dec_label_pc_40171c:
  %0 = call i32 @__decompiler_undefined_function_0()
  ret i32 %0, !insn.addr !205
}

define i32 @function_401721() local_unnamed_addr {
dec_label_pc_401721:
  %0 = call i32 @__decompiler_undefined_function_0()
  ret i32 %0, !insn.addr !206
}

define i32 @function_401733(i32 %arg1, i32 %arg2, i32 %arg3, i32 %arg4, i32 %arg5) local_unnamed_addr {
dec_label_pc_401733:
  ret i32 %arg1, !insn.addr !207
}

define i32 @function_401740(i32 %arg1) local_unnamed_addr {
dec_label_pc_401740:
  %eax.0.reg2mem = alloca i32, !insn.addr !208
  %0 = call i32 @__decompiler_undefined_function_0()
  %stack_var_-408 = alloca i32, align 4
  %1 = call i32 @function_413610(i32* nonnull %stack_var_-408), !insn.addr !209
  %2 = bitcast i32* %stack_var_-408 to i8*, !insn.addr !210
  %3 = call i32 @_strncmp(i8* nonnull %2, i8* getelementptr inbounds ([5 x i8], [5 x i8]* @global_var_4271f0, i32 0, i32 0), i32 4), !insn.addr !210
  %4 = icmp eq i32 %3, 0, !insn.addr !211
  %5 = icmp eq i1 %4, false, !insn.addr !212
  br i1 %5, label %dec_label_pc_4017c0, label %dec_label_pc_40177a, !insn.addr !212

dec_label_pc_40177a:                              ; preds = %dec_label_pc_401740
  %6 = call i32* @GetModuleHandleA(i8* null)
  %7 = inttoptr i32 %0 to i8*
  %8 = call i1 @PlaySoundA(i8* %7, i32* %6, i32 ptrtoint (i32* @2 to i32))
  store i32 0, i32* %eax.0.reg2mem, !insn.addr !213
  br label %dec_label_pc_4018cd, !insn.addr !213

dec_label_pc_4017c0:                              ; preds = %dec_label_pc_401740
  %9 = call i32 @_strncmp(i8* nonnull %2, i8* getelementptr inbounds ([5 x i8], [5 x i8]* @global_var_4271f8, i32 0, i32 0), i32 4), !insn.addr !214
  %10 = icmp eq i32 %9, 0, !insn.addr !215
  %11 = icmp eq i1 %10, false, !insn.addr !216
  br i1 %11, label %dec_label_pc_4018a8, label %dec_label_pc_4017de, !insn.addr !216

dec_label_pc_4017de:                              ; preds = %dec_label_pc_4017c0
  %12 = call i32 @function_403f60(), !insn.addr !217
  %13 = call i32 @function_401f20(i32* bitcast (i8** @global_var_4342b8 to i32*), i8* getelementptr inbounds ([7 x i8], [7 x i8]* @global_var_427200, i32 0, i32 0)), !insn.addr !218
  %14 = call i32 @function_403e00(i32 ptrtoint (i32* @2 to i32)), !insn.addr !219
  %15 = call i32 @function_403f60(), !insn.addr !220
  %16 = call i32 @function_401f20(i32* bitcast (i8** @global_var_4342b8 to i32*), i8* getelementptr inbounds ([11 x i8], [11 x i8]* @global_var_427208, i32 0, i32 0)), !insn.addr !221
  %17 = call i32 @function_403c90(i32 ptrtoint (i32* @2 to i32)), !insn.addr !222
  %18 = call i32 @function_403f60(), !insn.addr !223
  %19 = call i32 @function_401f20(i32* bitcast (i8** @global_var_4342b8 to i32*), i8* getelementptr inbounds ([13 x i8], [13 x i8]* @global_var_427214, i32 0, i32 0)), !insn.addr !224
  %20 = call i32 @function_403e00(i32 ptrtoint (i32* @2 to i32)), !insn.addr !225
  %21 = call i32 @function_403f60(), !insn.addr !226
  %22 = call i32 @function_401f20(i32* bitcast (i8** @global_var_4342b8 to i32*), i8* getelementptr inbounds ([16 x i8], [16 x i8]* @global_var_427224, i32 0, i32 0)), !insn.addr !227
  %23 = call i32 @function_403c90(i32 ptrtoint (i32* @2 to i32)), !insn.addr !228
  %24 = call i32 @function_403f60(), !insn.addr !229
  %25 = call i32 @function_403f60(), !insn.addr !230
  store i32 0, i32* %eax.0.reg2mem, !insn.addr !231
  br label %dec_label_pc_4018cd, !insn.addr !231

dec_label_pc_4018a8:                              ; preds = %dec_label_pc_4017c0
  %26 = call i32 @_strncmp(i8* nonnull %2, i8* getelementptr inbounds ([5 x i8], [5 x i8]* @global_var_427234, i32 0, i32 0), i32 4), !insn.addr !232
  %27 = icmp eq i32 %26, 0, !insn.addr !233
  %. = zext i1 %27 to i32
  store i32 %., i32* %eax.0.reg2mem, !insn.addr !234
  br label %dec_label_pc_4018cd, !insn.addr !234

dec_label_pc_4018cd:                              ; preds = %dec_label_pc_4018a8, %dec_label_pc_4017de, %dec_label_pc_40177a
  %eax.0.reload = load i32, i32* %eax.0.reg2mem
  ret i32 %eax.0.reload, !insn.addr !235
}

define i32 @function_4018e0(i32 %arg1, i32 %arg2) local_unnamed_addr {
dec_label_pc_4018e0:
  %storemerge.reg2mem = alloca i32, !insn.addr !236
  %stack_var_-140 = alloca i32, align 4
  %stack_var_-8244 = alloca i32, align 4
  %stack_var_-48 = alloca i32, align 4
  %stack_var_-52 = alloca i32, align 4
  %stack_var_-84 = alloca i32, align 4
  %stack_var_-4244 = alloca i32, align 4
  %stack_var_-60 = alloca i32, align 4
  %stack_var_-24 = alloca i32, align 4
  %0 = call i32 @__chkstk(), !insn.addr !237
  store i32 33, i32* %stack_var_-24, align 4, !insn.addr !238
  %1 = call i32 @function_402a90(i32 %arg1, i32 33, i32 64, i32 1), !insn.addr !239
  %2 = call i32 @function_408b70(i32* nonnull %stack_var_-60, i32 44, i32 0), !insn.addr !240
  %3 = call i32 @"??0?$fpos@U_Mbstatet@@@std@@QAE@_J@Z"(i64 ptrtoint (i32* @2 to i64)), !insn.addr !241
  %4 = call i32 @function_408d80(i32 ptrtoint (i32* @2 to i32), i32 ptrtoint (i32* @2 to i32), i32 ptrtoint (i32* @2 to i32), i32 ptrtoint (i32* @2 to i32), i32 ptrtoint (i32* @2 to i32), i32 ptrtoint (i32* @2 to i32)), !insn.addr !242
  %5 = ptrtoint i32* %stack_var_-4244 to i32, !insn.addr !243
  store i32 %5, i32* %stack_var_-84, align 4, !insn.addr !243
  %6 = call i32 @function_408b70(i32* nonnull %stack_var_-4244, i32 4000, i32 0), !insn.addr !244
  %7 = bitcast i32* %stack_var_-60 to i8*
  %8 = call i32 @_strncmp(i8* nonnull %7, i8* getelementptr inbounds ([5 x i8], [5 x i8]* @global_var_427244, i32 0, i32 0), i32 4), !insn.addr !245
  %9 = ptrtoint i32* %stack_var_-84 to i32, !insn.addr !246
  %10 = icmp eq i32 %8, 0, !insn.addr !247
  %11 = icmp eq i1 %10, false, !insn.addr !248
  br i1 %11, label %dec_label_pc_4019a9, label %dec_label_pc_401964, !insn.addr !248

dec_label_pc_401964:                              ; preds = %dec_label_pc_4018e0
  %12 = bitcast i32* %stack_var_-52 to i8*
  %13 = call i32 @_strncmp(i8* nonnull %12, i8* getelementptr inbounds ([5 x i8], [5 x i8]* @global_var_42724c, i32 0, i32 0), i32 4), !insn.addr !249
  %14 = icmp eq i32 %13, 0, !insn.addr !250
  %15 = icmp eq i1 %14, false, !insn.addr !251
  br i1 %15, label %dec_label_pc_4019a9, label %dec_label_pc_40197b, !insn.addr !251

dec_label_pc_40197b:                              ; preds = %dec_label_pc_401964
  %16 = bitcast i32* %stack_var_-48 to i8*
  %17 = call i32 @_strncmp(i8* nonnull %16, i8* getelementptr inbounds ([5 x i8], [5 x i8]* @global_var_427254, i32 0, i32 0), i32 4), !insn.addr !252
  %18 = icmp eq i32 %17, 0, !insn.addr !253
  %19 = icmp eq i1 %18, false, !insn.addr !254
  br i1 %19, label %dec_label_pc_4019a9, label %dec_label_pc_401992, !insn.addr !254

dec_label_pc_401992:                              ; preds = %dec_label_pc_40197b
  %20 = bitcast i32* %stack_var_-24 to i8*
  %21 = call i32 @_strncmp(i8* nonnull %20, i8* getelementptr inbounds ([5 x i8], [5 x i8]* @global_var_42725c, i32 0, i32 0), i32 4), !insn.addr !255
  %22 = icmp eq i32 %21, 0, !insn.addr !256
  br i1 %22, label %dec_label_pc_4019cb, label %dec_label_pc_4019a9, !insn.addr !257

dec_label_pc_4019a9:                              ; preds = %dec_label_pc_401992, %dec_label_pc_40197b, %dec_label_pc_401964, %dec_label_pc_4018e0
  %23 = add i32 %9, -4, !insn.addr !258
  %24 = inttoptr i32 %23 to i32*, !insn.addr !258
  store i32 ptrtoint ([16 x i8]* @global_var_427264 to i32), i32* %24, align 4, !insn.addr !258
  %25 = add i32 %9, -8, !insn.addr !259
  %26 = inttoptr i32 %25 to i32*, !insn.addr !259
  store i32 ptrtoint (i8** @global_var_4342b8 to i32), i32* %26, align 4, !insn.addr !259
  %27 = call i32 @function_401f20(i32* nonnull @2, i8* bitcast (i32* @2 to i8*)), !insn.addr !260
  %28 = call i32 @function_404100(), !insn.addr !261
  store i32 %28, i32* %storemerge.reg2mem, !insn.addr !262
  br label %dec_label_pc_401aa3, !insn.addr !262

dec_label_pc_4019cb:                              ; preds = %dec_label_pc_401992
  %29 = call i32* @_memcpy(i32* bitcast (i8** @global_var_436000 to i32*), i32* nonnull %stack_var_-4244, i32 4096), !insn.addr !263
  %30 = call i32 @function_407050(), !insn.addr !264
  %31 = inttoptr i32 %arg2 to i8*, !insn.addr !265
  %32 = call i32 @_strncmp(i8* %31, i8* getelementptr inbounds ([5 x i8], [5 x i8]* @global_var_427274, i32 0, i32 0), i32 4), !insn.addr !266
  %33 = icmp eq i32 %32, 0, !insn.addr !267
  %34 = icmp eq i1 %33, false, !insn.addr !268
  br i1 %34, label %dec_label_pc_401a71, label %dec_label_pc_401a17.preheader, !insn.addr !268

dec_label_pc_401a17.preheader:                    ; preds = %dec_label_pc_4019cb
  %35 = add i32 %9, -4, !insn.addr !269
  %36 = inttoptr i32 %35 to i32*, !insn.addr !269
  %37 = add i32 %9, -8, !insn.addr !270
  %38 = inttoptr i32 %37 to i32*, !insn.addr !270
  %39 = ptrtoint i32* %stack_var_-8244 to i32
  %40 = add i32 %9, -12
  %41 = inttoptr i32 %40 to i32*
  %42 = add i32 %9, -56
  %43 = inttoptr i32 %42 to i8*
  br label %dec_label_pc_401a1d

dec_label_pc_401a1d:                              ; preds = %dec_label_pc_401a17.preheader, %dec_label_pc_401a1d
  store i32 ptrtoint ([50 x i8]* @global_var_42727c to i32), i32* %36, align 4, !insn.addr !269
  store i32 ptrtoint (i8** @global_var_4342b8 to i32), i32* %38, align 4, !insn.addr !270
  %44 = call i32 @function_401f20(i32* nonnull @2, i8* bitcast (i32* @2 to i8*)), !insn.addr !271
  store i32 %39, i32* %36, align 4, !insn.addr !272
  store i32 ptrtoint (i32* @global_var_434250 to i32), i32* %38, align 4, !insn.addr !273
  %45 = call i32 @function_401cd0(i32 ptrtoint (i32* @2 to i32), i32 ptrtoint (i32* @2 to i32)), !insn.addr !274
  store i32 0, i32* %36, align 4, !insn.addr !275
  store i32 %arg1, i32* %38, align 4, !insn.addr !276
  store i32 %39, i32* %41, align 4, !insn.addr !277
  call void @__asm_rep_movsd_memcpy(i8* %43, i8* nonnull %7, i32 11), !insn.addr !278
  %46 = call i32 @function_401740(i32 ptrtoint (i32* @2 to i32)), !insn.addr !279
  %47 = icmp eq i32 %46, 0, !insn.addr !280
  %48 = icmp eq i1 %47, false, !insn.addr !281
  br i1 %48, label %dec_label_pc_401a98, label %dec_label_pc_401a1d, !insn.addr !281

dec_label_pc_401a71:                              ; preds = %dec_label_pc_4019cb
  %49 = bitcast i32* %stack_var_-140 to i8*, !insn.addr !282
  call void @__asm_rep_movsd_memcpy(i8* nonnull %49, i8* nonnull %7, i32 11), !insn.addr !282
  %50 = call i32 @function_401740(i32 ptrtoint (i32* @2 to i32)), !insn.addr !283
  br label %dec_label_pc_401a98, !insn.addr !284

dec_label_pc_401a98:                              ; preds = %dec_label_pc_401a1d, %dec_label_pc_401a71
  %51 = call i32 @function_404100(), !insn.addr !285
  store i32 %51, i32* %storemerge.reg2mem, !insn.addr !285
  br label %dec_label_pc_401aa3, !insn.addr !285

dec_label_pc_401aa3:                              ; preds = %dec_label_pc_401a98, %dec_label_pc_4019a9
  %storemerge.reload = load i32, i32* %storemerge.reg2mem
  ret i32 %storemerge.reload, !insn.addr !286
}

define i32 @function_401ab0(i32 %arg1, i32 %arg2) local_unnamed_addr {
dec_label_pc_401ab0:
  %esp.0.reg2mem = alloca i32, !insn.addr !287
  %.pre-phi.reg2mem = alloca i32, !insn.addr !287
  %stack_var_-120 = alloca i32, align 4
  %stack_var_-48 = alloca i32, align 4
  %stack_var_-68 = alloca i32, align 4
  %stack_var_-4304 = alloca i32, align 4
  %stack_var_-20 = alloca i8*, align 4
  %stack_var_-16 = alloca i32, align 4
  %0 = call i32 @__chkstk(), !insn.addr !288
  %1 = ptrtoint i32* %stack_var_-16 to i32, !insn.addr !289
  store i32 4000, i32* %stack_var_-16, align 4, !insn.addr !290
  %2 = bitcast i8** %stack_var_-20 to i32*
  store i32 4, i32* %2, align 4
  %3 = call i1 @VirtualProtect(i32* inttoptr (i32 4 to i32*), i32 4000, i32 %1, i32* nonnull @2), !insn.addr !291
  store i32 1280070990, i32* %stack_var_-4304, align 4, !insn.addr !292
  %4 = call i32* @_memset(i32* inttoptr (i32 1280070990 to i32*), i32 0, i32 ptrtoint (i32* @2 to i32)), !insn.addr !293
  %5 = and i32 %arg1, -2
  %6 = icmp eq i32 %5, 2
  br i1 %6, label %dec_label_pc_401b6a, label %dec_label_pc_401b16, !insn.addr !294

dec_label_pc_401b16:                              ; preds = %dec_label_pc_401ab0
  %7 = call i32 @function_401f20(i32* bitcast (i8** @global_var_4342b8 to i32*), i8* getelementptr inbounds ([50 x i8], [50 x i8]* @global_var_4272b8, i32 0, i32 0)), !insn.addr !295
  %8 = call i32 @function_403f60(), !insn.addr !296
  %9 = call i32 @function_403f60(), !insn.addr !297
  %10 = call i32 @function_401f20(i32* bitcast (i8** @global_var_4342b8 to i32*), i8* getelementptr inbounds ([35 x i8], [35 x i8]* @global_var_4272ec, i32 0, i32 0)), !insn.addr !298
  %11 = call i32 @function_403f60(), !insn.addr !299
  br label %dec_label_pc_401c8f, !insn.addr !300

dec_label_pc_401b6a:                              ; preds = %dec_label_pc_401ab0
  %12 = add i32 %arg2, 4, !insn.addr !301
  %13 = inttoptr i32 %12 to i32*, !insn.addr !301
  %14 = load i32, i32* %13, align 4, !insn.addr !301
  %15 = inttoptr i32 %14 to i8*, !insn.addr !302
  %16 = call i32 @_strncmp(i8* %15, i8* getelementptr inbounds ([5 x i8], [5 x i8]* @global_var_427310, i32 0, i32 0), i32 4), !insn.addr !303
  %17 = icmp eq i32 %16, 0, !insn.addr !304
  %18 = icmp eq i1 %17, false, !insn.addr !305
  br i1 %18, label %dec_label_pc_401bfb, label %dec_label_pc_401b8c, !insn.addr !305

dec_label_pc_401b8c:                              ; preds = %dec_label_pc_401b6a
  %19 = call i32 @function_401f20(i32* bitcast (i8** @global_var_4342b8 to i32*), i8* getelementptr inbounds ([36 x i8], [36 x i8]* @global_var_427318, i32 0, i32 0)), !insn.addr !306
  %20 = call i32 @function_403f60(), !insn.addr !307
  %21 = call i32 @function_403f60(), !insn.addr !308
  %22 = call i32 @function_401f20(i32* bitcast (i8** @global_var_4342b8 to i32*), i8* getelementptr inbounds ([77 x i8], [77 x i8]* @global_var_427340, i32 0, i32 0)), !insn.addr !309
  %23 = call i32 @function_403f60(), !insn.addr !310
  %24 = call i32 @function_401f20(i32* bitcast (i8** @global_var_4342b8 to i32*), i8* getelementptr inbounds ([47 x i8], [47 x i8]* @global_var_427390, i32 0, i32 0)), !insn.addr !311
  %25 = call i32 @function_403f60(), !insn.addr !312
  br label %dec_label_pc_401c8f, !insn.addr !313

dec_label_pc_401bfb:                              ; preds = %dec_label_pc_401b6a
  %26 = icmp eq i32 %arg1, 3, !insn.addr !314
  %27 = icmp eq i1 %26, false, !insn.addr !315
  br i1 %27, label %dec_label_pc_401bfb.dec_label_pc_401c5f_crit_edge, label %dec_label_pc_401c01, !insn.addr !315

dec_label_pc_401bfb.dec_label_pc_401c5f_crit_edge: ; preds = %dec_label_pc_401bfb
  %28 = ptrtoint i8** %stack_var_-20 to i32, !insn.addr !316
  %.pre = ptrtoint i32* %stack_var_-4304 to i32, !insn.addr !317
  store i32 %.pre, i32* %.pre-phi.reg2mem
  store i32 %28, i32* %esp.0.reg2mem
  br label %dec_label_pc_401c5f

dec_label_pc_401c01:                              ; preds = %dec_label_pc_401bfb
  %29 = call i32 @function_413610(i32* nonnull %stack_var_-68), !insn.addr !318
  %30 = ptrtoint i32* %stack_var_-68 to i32, !insn.addr !319
  %31 = call i32 @function_402a90(i32 %30, i32 33, i32 64, i32 1), !insn.addr !319
  %32 = ptrtoint i32* %stack_var_-4304 to i32
  store i32 %32, i32* %stack_var_-48, align 4, !insn.addr !320
  %33 = ptrtoint i32* %stack_var_-48 to i32, !insn.addr !320
  %34 = call i32 @function_408b70(i32* nonnull %stack_var_-4304, i32 4000, i32 0), !insn.addr !321
  %35 = call i32 @function_407050(), !insn.addr !322
  %36 = call i32 @function_404100(), !insn.addr !323
  store i32 %32, i32* %.pre-phi.reg2mem, !insn.addr !323
  store i32 %33, i32* %esp.0.reg2mem, !insn.addr !323
  br label %dec_label_pc_401c5f, !insn.addr !323

dec_label_pc_401c5f:                              ; preds = %dec_label_pc_401bfb.dec_label_pc_401c5f_crit_edge, %dec_label_pc_401c01
  %esp.0.reload = load i32, i32* %esp.0.reg2mem
  %.pre-phi.reload = load i32, i32* %.pre-phi.reg2mem
  %37 = load i32, i32* %13, align 4, !insn.addr !324
  %38 = add i32 %esp.0.reload, -4, !insn.addr !325
  %39 = inttoptr i32 %38 to i32*, !insn.addr !325
  store i32 %37, i32* %39, align 4, !insn.addr !325
  %40 = add i32 %esp.0.reload, -8, !insn.addr !326
  %41 = inttoptr i32 %40 to i32*, !insn.addr !326
  %42 = ptrtoint i32* %stack_var_-120 to i32, !insn.addr !326
  store i32 %42, i32* %41, align 4, !insn.addr !326
  %43 = call i32 @function_413610(i32* nonnull @2), !insn.addr !327
  store i32 %.pre-phi.reload, i32* %39, align 4, !insn.addr !317
  store i32 %42, i32* %41, align 4, !insn.addr !328
  %44 = call i32 @function_4018e0(i32 ptrtoint (i32* @2 to i32), i32 ptrtoint (i32* @2 to i32)), !insn.addr !329
  br label %dec_label_pc_401c8f, !insn.addr !330

dec_label_pc_401c8f:                              ; preds = %dec_label_pc_401c5f, %dec_label_pc_401b8c, %dec_label_pc_401b16
  ret i32 0, !insn.addr !331
}

declare i32 @"??$?0U?$_Wrap_alloc@V?$allocator@D@std@@@std@@$$V@?$_Compressed_pair@U?$_Wrap_alloc@V?$allocator@D@std@@@std@@V?$_String_val@U?$_Simple_types@D@std@@@2@$00@std@@QAE@U_One_then_variadic_args_t@1@$$QAU?$_Wrap_alloc@V?$allocator@D@std@@@1@@Z"(i32, i32*) local_unnamed_addr

define i32 @function_401cd0(i32 %arg1, i32 %arg2) local_unnamed_addr {
dec_label_pc_401cd0:
  %esp.1.reg2mem = alloca i32, !insn.addr !332
  %stack_var_-32.0.reg2mem = alloca i1, !insn.addr !332
  %stack_var_8.1.reg2mem = alloca i32, !insn.addr !332
  %.pre-phi.reg2mem = alloca i32*, !insn.addr !332
  %stack_var_8.011.reg2mem = alloca i32, !insn.addr !332
  %esp.012.reg2mem = alloca i32, !insn.addr !332
  %.in.reg2mem = alloca i32, !insn.addr !332
  %.reg2mem = alloca i32, !insn.addr !332
  %storemerge5.reg2mem = alloca i32, !insn.addr !332
  %stack_var_-68.0.reg2mem = alloca i32, !insn.addr !332
  %stack_var_-40 = alloca i32, align 4
  %stack_var_-28 = alloca i32, align 4
  %stack_var_-116 = alloca i32, align 4
  %stack_var_-112 = alloca i32, align 4
  %stack_var_-92 = alloca i32, align 4
  %stack_var_-16 = alloca i32, align 4
  %0 = call i32 @__readfsdword(i32 0), !insn.addr !333
  store i32 %0, i32* %stack_var_-16, align 4, !insn.addr !334
  %1 = ptrtoint i32* %stack_var_-16 to i32, !insn.addr !334
  call void @__writefsdword(i32 0, i32 %1), !insn.addr !335
  store i32 %arg1, i32* %stack_var_-112, align 4, !insn.addr !336
  %2 = call i32 @function_403500(i32 %arg1, i32 0), !insn.addr !337
  %3 = call i32 @function_4040b0(), !insn.addr !338
  %4 = and i32 %3, 255, !insn.addr !339
  %5 = icmp eq i32 %4, 0, !insn.addr !340
  br i1 %5, label %dec_label_pc_401cd0.dec_label_pc_401ea8_crit_edge, label %dec_label_pc_401d20, !insn.addr !341

dec_label_pc_401cd0.dec_label_pc_401ea8_crit_edge: ; preds = %dec_label_pc_401cd0
  %6 = ptrtoint i32* %stack_var_-112 to i32, !insn.addr !336
  %.pre = inttoptr i32 %arg1 to i32*, !insn.addr !342
  store i32* %.pre, i32** %.pre-phi.reg2mem
  store i32 %arg2, i32* %stack_var_8.1.reg2mem
  store i1 false, i1* %stack_var_-32.0.reg2mem
  store i32 %6, i32* %esp.1.reg2mem
  br label %dec_label_pc_401ea8

dec_label_pc_401d20:                              ; preds = %dec_label_pc_401cd0
  %7 = ptrtoint i32* %stack_var_-92 to i32, !insn.addr !343
  store i32 %7, i32* %stack_var_-116, align 4, !insn.addr !343
  %8 = call i32 @function_407f50(i32* nonnull %stack_var_-92), !insn.addr !344
  %9 = call i32 @function_402690(i32 %8), !insn.addr !345
  %10 = call i32 @"??1?$shared_ptr@V__ExceptionPtr@@@std@@QAE@XZ"(), !insn.addr !346
  %11 = inttoptr i32 %arg1 to i32*
  %12 = load i32, i32* %11, align 4, !insn.addr !347
  %13 = add i32 %12, 4, !insn.addr !348
  %14 = inttoptr i32 %13 to i32*, !insn.addr !348
  %15 = load i32, i32* %14, align 4, !insn.addr !348
  %16 = add i32 %15, %arg1, !insn.addr !348
  %17 = call i32 @function_409a60(), !insn.addr !349
  %18 = icmp slt i32 %16, 0, !insn.addr !350
  br i1 %18, label %dec_label_pc_401d8f, label %dec_label_pc_401d6d, !insn.addr !351

dec_label_pc_401d6d:                              ; preds = %dec_label_pc_401d20
  %19 = icmp eq i32 %16, 0, !insn.addr !350
  %20 = icmp eq i1 %19, false, !insn.addr !352
  %21 = icmp ne i1 %20, true, !insn.addr !352
  %22 = icmp eq i32 %17, 0, !insn.addr !353
  %or.cond = icmp eq i1 %22, %21
  br i1 %or.cond, label %dec_label_pc_401d8f, label %dec_label_pc_401d75, !insn.addr !352

dec_label_pc_401d75:                              ; preds = %dec_label_pc_401d6d
  %23 = load i32, i32* %11, align 4, !insn.addr !354
  %24 = add i32 %23, 4, !insn.addr !355
  %25 = inttoptr i32 %24 to i32*, !insn.addr !355
  %26 = load i32, i32* %25, align 4, !insn.addr !355
  %27 = add i32 %26, %arg1, !insn.addr !355
  %28 = call i32 @function_409a60(), !insn.addr !356
  store i32 %28, i32* %stack_var_-68.0.reg2mem, !insn.addr !357
  store i32 %27, i32* %storemerge5.reg2mem, !insn.addr !357
  br label %dec_label_pc_401d9a, !insn.addr !357

dec_label_pc_401d8f:                              ; preds = %dec_label_pc_401d6d, %dec_label_pc_401d20
  %29 = call i32 @function_408240(i32 %17, i32 %16), !insn.addr !358
  store i32 %29, i32* %stack_var_-68.0.reg2mem, !insn.addr !359
  store i32 %16, i32* %storemerge5.reg2mem, !insn.addr !359
  br label %dec_label_pc_401d9a, !insn.addr !359

dec_label_pc_401d9a:                              ; preds = %dec_label_pc_401d8f, %dec_label_pc_401d75
  %30 = ptrtoint i32* %stack_var_-116 to i32, !insn.addr !360
  %storemerge5.reload = load i32, i32* %storemerge5.reg2mem
  %stack_var_-68.0.reload = load i32, i32* %stack_var_-68.0.reg2mem
  %31 = call i32 @function_408b30(), !insn.addr !361
  %32 = call i32 @function_409260(), !insn.addr !362
  store i32 %32, i32* %stack_var_-28, align 4
  %33 = icmp eq i32 %stack_var_-68.0.reload, 0, !insn.addr !363
  %34 = zext i1 %33 to i32, !insn.addr !364
  %35 = sub i32 %storemerge5.reload, %34, !insn.addr !364
  %36 = icmp slt i32 %35, 0, !insn.addr !365
  store i32* %11, i32** %.pre-phi.reg2mem, !insn.addr !366
  store i32 %arg2, i32* %stack_var_8.1.reg2mem, !insn.addr !366
  store i1 false, i1* %stack_var_-32.0.reg2mem, !insn.addr !366
  store i32 %30, i32* %esp.1.reg2mem, !insn.addr !366
  br i1 %36, label %dec_label_pc_401ea8, label %dec_label_pc_401df8.lr.ph, !insn.addr !366

dec_label_pc_401df8.lr.ph:                        ; preds = %dec_label_pc_401d9a
  %37 = trunc i32 %9 to i16, !insn.addr !367
  %38 = ptrtoint i32* %stack_var_-28 to i32
  %39 = ptrtoint i32* %stack_var_-40 to i32
  store i32 %35, i32* %.reg2mem
  store i32 %stack_var_-68.0.reload, i32* %.in.reg2mem
  store i32 %30, i32* %esp.012.reg2mem
  store i32 %arg2, i32* %stack_var_8.011.reg2mem
  br label %dec_label_pc_401df8

dec_label_pc_401df8:                              ; preds = %dec_label_pc_401df8.lr.ph, %dec_label_pc_401e5d
  %stack_var_8.011.reload = load i32, i32* %stack_var_8.011.reg2mem
  %esp.012.reload = load i32, i32* %esp.012.reg2mem
  %.in.reload = load i32, i32* %.in.reg2mem
  %.reload = load i32, i32* %.reg2mem
  %40 = add i32 %.in.reload, -1
  %41 = icmp eq i32 %.reload, 0, !insn.addr !365
  %42 = icmp eq i1 %41, false, !insn.addr !368
  %43 = icmp ne i1 %42, true, !insn.addr !368
  %44 = icmp eq i32 %40, 0
  %or.cond8 = icmp eq i1 %44, %43
  store i32* %11, i32** %.pre-phi.reg2mem, !insn.addr !368
  store i32 %stack_var_8.011.reload, i32* %stack_var_8.1.reg2mem, !insn.addr !368
  store i1 false, i1* %stack_var_-32.0.reg2mem, !insn.addr !368
  store i32 %esp.012.reload, i32* %esp.1.reg2mem, !insn.addr !368
  br i1 %or.cond8, label %dec_label_pc_401ea8, label %dec_label_pc_401e00, !insn.addr !368

dec_label_pc_401e00:                              ; preds = %dec_label_pc_401df8
  %45 = call i32 @"?eof@?$char_traits@D@std@@SAHXZ"(), !insn.addr !369
  store i32 %45, i32* %stack_var_-40, align 4, !insn.addr !370
  %46 = add i32 %esp.012.reload, -4, !insn.addr !371
  %47 = inttoptr i32 %46 to i32*, !insn.addr !371
  store i32 %38, i32* %47, align 4, !insn.addr !371
  %48 = add i32 %esp.012.reload, -8, !insn.addr !372
  %49 = inttoptr i32 %48 to i32*, !insn.addr !372
  store i32 %39, i32* %49, align 4, !insn.addr !372
  %50 = load i32, i32* %stack_var_-40, align 4, !insn.addr !373
  %51 = inttoptr i32 %50 to i32*, !insn.addr !373
  %52 = call i32 @"?eq_int_type@?$char_traits@D@std@@SA_NABH0@Z"(i32* %51, i32* nonnull @2), !insn.addr !373
  %53 = and i32 %52, 255, !insn.addr !374
  %54 = icmp eq i32 %53, 0, !insn.addr !375
  store i32* %11, i32** %.pre-phi.reg2mem, !insn.addr !376
  store i32 %stack_var_8.011.reload, i32* %stack_var_8.1.reg2mem, !insn.addr !376
  store i1 true, i1* %stack_var_-32.0.reg2mem, !insn.addr !376
  store i32 %esp.012.reload, i32* %esp.1.reg2mem, !insn.addr !376
  br i1 %54, label %dec_label_pc_401e2c, label %dec_label_pc_401ea8, !insn.addr !376

dec_label_pc_401e2c:                              ; preds = %dec_label_pc_401e00
  store i32 %38, i32* %47, align 4, !insn.addr !377
  %55 = call i8 @"?to_char_type@?$char_traits@D@std@@SADABH@Z"(i32* nonnull @2), !insn.addr !378
  %56 = zext i8 %55 to i32
  store i32 %56, i32* %47, align 4, !insn.addr !379
  store i32 72, i32* %49, align 4, !insn.addr !380
  %57 = call i32 @"?is@?$ctype@D@std@@QBE_NFD@Z"(i16 %37, i8 %55), !insn.addr !381
  %58 = and i32 %57, 255, !insn.addr !382
  %59 = icmp eq i32 %58, 0, !insn.addr !383
  %60 = icmp eq i8 %55, 0, !insn.addr !384
  %61 = icmp eq i1 %60, false, !insn.addr !385
  %or.cond10 = icmp eq i1 %61, %59
  store i32* %11, i32** %.pre-phi.reg2mem, !insn.addr !386
  store i32 %stack_var_8.011.reload, i32* %stack_var_8.1.reg2mem, !insn.addr !386
  store i1 false, i1* %stack_var_-32.0.reg2mem, !insn.addr !386
  store i32 %48, i32* %esp.1.reg2mem, !insn.addr !386
  br i1 %or.cond10, label %dec_label_pc_401e5d, label %dec_label_pc_401ea8, !insn.addr !386

dec_label_pc_401e5d:                              ; preds = %dec_label_pc_401e2c
  %62 = add i32 %esp.012.reload, -12, !insn.addr !387
  %63 = inttoptr i32 %62 to i32*, !insn.addr !387
  store i32 %38, i32* %63, align 4, !insn.addr !387
  %64 = call i8 @"?to_char_type@?$char_traits@D@std@@SADABH@Z"(i32* nonnull @2), !insn.addr !388
  %65 = inttoptr i32 %stack_var_8.011.reload to i8*, !insn.addr !389
  store i8 %64, i8* %65, align 1, !insn.addr !389
  %66 = add i32 %stack_var_8.011.reload, 1, !insn.addr !390
  %67 = call i32 @function_408b30(), !insn.addr !391
  %68 = call i32 @function_409320(), !insn.addr !392
  store i32 %68, i32* %stack_var_-28, align 4
  %69 = zext i1 %44 to i32, !insn.addr !364
  %70 = sub i32 %.reload, %69, !insn.addr !364
  %71 = icmp slt i32 %70, 0, !insn.addr !365
  store i32 %70, i32* %.reg2mem, !insn.addr !366
  store i32 %40, i32* %.in.reg2mem, !insn.addr !366
  store i32 %48, i32* %esp.012.reg2mem, !insn.addr !366
  store i32 %66, i32* %stack_var_8.011.reg2mem, !insn.addr !366
  store i32* %11, i32** %.pre-phi.reg2mem, !insn.addr !366
  store i32 %66, i32* %stack_var_8.1.reg2mem, !insn.addr !366
  store i1 false, i1* %stack_var_-32.0.reg2mem, !insn.addr !366
  store i32 %48, i32* %esp.1.reg2mem, !insn.addr !366
  br i1 %71, label %dec_label_pc_401ea8, label %dec_label_pc_401df8, !insn.addr !366

dec_label_pc_401ea8:                              ; preds = %dec_label_pc_401e5d, %dec_label_pc_401df8, %dec_label_pc_401e00, %dec_label_pc_401e2c, %dec_label_pc_401d9a, %dec_label_pc_401cd0.dec_label_pc_401ea8_crit_edge
  %esp.1.reload = load i32, i32* %esp.1.reg2mem
  %stack_var_-32.0.reload = load i1, i1* %stack_var_-32.0.reg2mem
  %stack_var_8.1.reload = load i32, i32* %stack_var_8.1.reg2mem
  %.pre-phi.reload = load i32*, i32** %.pre-phi.reg2mem
  %72 = inttoptr i32 %stack_var_8.1.reload to i8*, !insn.addr !393
  store i8 0, i8* %72, align 1, !insn.addr !393
  %73 = add i32 %esp.1.reload, -4, !insn.addr !394
  %74 = inttoptr i32 %73 to i32*, !insn.addr !394
  store i32 0, i32* %74, align 4, !insn.addr !394
  %75 = add i32 %esp.1.reload, -8, !insn.addr !395
  %76 = inttoptr i32 %75 to i32*, !insn.addr !395
  store i32 0, i32* %76, align 4, !insn.addr !395
  %77 = call i32 @"?width@ios_base@std@@QAE_J_J@Z"(i64 ptrtoint (i32* @2 to i64)), !insn.addr !396
  %78 = add i32 %esp.1.reload, -12, !insn.addr !397
  %79 = inttoptr i32 %78 to i32*, !insn.addr !397
  store i32 0, i32* %79, align 4, !insn.addr !397
  %80 = sext i1 %stack_var_-32.0.reload to i32, !insn.addr !398
  %81 = add i32 %esp.1.reload, -16, !insn.addr !399
  %82 = inttoptr i32 %81 to i32*, !insn.addr !399
  store i32 %80, i32* %82, align 4, !insn.addr !399
  %83 = load i32, i32* %.pre-phi.reload, align 4, !insn.addr !342
  %84 = add i32 %83, 4, !insn.addr !400
  %85 = inttoptr i32 %84 to i32*, !insn.addr !400
  %86 = load i32, i32* %85, align 4, !insn.addr !400
  %87 = add i32 %86, %arg1, !insn.addr !400
  %88 = call i32 @"?setstate@?$basic_ios@DU?$char_traits@D@std@@@std@@QAEXH_N@Z"(i32 %87, i1 %stack_var_-32.0.reload), !insn.addr !401
  %89 = call i32 @function_403b40(i32 %arg1), !insn.addr !402
  %90 = load i32, i32* %stack_var_-16, align 4, !insn.addr !403
  call void @__writefsdword(i32 0, i32 %90), !insn.addr !404
  ret i32 %arg1, !insn.addr !405
}

define i32 @function_401f20(i32* %arg1, i8* %arg2) local_unnamed_addr {
dec_label_pc_401f20:
  %esp.4.reg2mem = alloca i32, !insn.addr !406
  %stack_var_-52.220.reg2mem = alloca i32, !insn.addr !406
  %stack_var_-48.221.reg2mem = alloca i32, !insn.addr !406
  %esp.322.reg2mem = alloca i32, !insn.addr !406
  %esp.1.ph.reg2mem = alloca i32, !insn.addr !406
  %stack_var_-48.1.ph.reg2mem = alloca i32, !insn.addr !406
  %stack_var_-52.1.ph.reg2mem = alloca i32, !insn.addr !406
  %stack_var_-52.025.reg2mem = alloca i32, !insn.addr !406
  %stack_var_-48.026.reg2mem = alloca i32, !insn.addr !406
  %esp.027.reg2mem = alloca i32, !insn.addr !406
  %stack_var_-64.0.reg2mem = alloca i32, !insn.addr !406
  %stack_var_-68.0.off0.reg2mem = alloca i32, !insn.addr !406
  %0 = call i128 @__decompiler_undefined_function_6()
  %1 = ptrtoint i8* %arg2 to i32
  %2 = ptrtoint i32* %arg1 to i32
  %stack_var_-40 = alloca i32, align 4
  %stack_var_-36 = alloca i32, align 4
  %stack_var_-32 = alloca i32, align 4
  %stack_var_-28 = alloca i32, align 4
  %3 = call i64 @__decompiler_undefined_function_7()
  %stack_var_-116 = alloca i32, align 4
  %stack_var_-16 = alloca i32, align 4
  %4 = call i32 @__readfsdword(i32 0), !insn.addr !407
  store i32 %4, i32* %stack_var_-16, align 4, !insn.addr !408
  %5 = ptrtoint i32* %stack_var_-16 to i32, !insn.addr !408
  call void @__writefsdword(i32 0, i32 %5), !insn.addr !409
  store i32 %1, i32* %stack_var_-116, align 4, !insn.addr !410
  %6 = call i32 @"?length@?$char_traits@D@std@@SAIPBD@Z"(i8* %arg2), !insn.addr !411
  %7 = call i32 @function_409a60(), !insn.addr !412
  %8 = icmp slt i32* %arg1, null, !insn.addr !413
  br i1 %8, label %dec_label_pc_401fc7, label %dec_label_pc_401f79, !insn.addr !414

dec_label_pc_401f79:                              ; preds = %dec_label_pc_401f20
  %9 = icmp eq i32* %arg1, null, !insn.addr !413
  %10 = icmp eq i1 %9, false, !insn.addr !415
  %11 = icmp ne i1 %10, true, !insn.addr !415
  %12 = icmp eq i32 %7, 0, !insn.addr !416
  %or.cond = icmp eq i1 %11, %12
  br i1 %or.cond, label %dec_label_pc_401fc7, label %dec_label_pc_401f81, !insn.addr !415

dec_label_pc_401f81:                              ; preds = %dec_label_pc_401f79
  %13 = load i32, i32* %arg1, align 4, !insn.addr !417
  %14 = call i32 @function_409a60(), !insn.addr !418
  %15 = icmp slt i32 %13, 0, !insn.addr !419
  br i1 %15, label %dec_label_pc_401fc7, label %dec_label_pc_401f9f, !insn.addr !419

dec_label_pc_401f9f:                              ; preds = %dec_label_pc_401f81
  %16 = icmp ne i32 %13, 0, !insn.addr !420
  %17 = icmp ugt i32 %14, %6
  %or.cond9 = or i1 %16, %17
  br i1 %or.cond9, label %dec_label_pc_401fa9, label %dec_label_pc_401fc7, !insn.addr !420

dec_label_pc_401fa9:                              ; preds = %dec_label_pc_401f9f
  %18 = call i32 @function_409a60(), !insn.addr !421
  %19 = sub i32 %18, %6, !insn.addr !422
  %20 = icmp ult i32 %18, %6, !insn.addr !422
  %21 = zext i1 %20 to i32, !insn.addr !423
  %22 = sub i32 %2, %21, !insn.addr !423
  store i32 %19, i32* %stack_var_-68.0.off0.reg2mem, !insn.addr !424
  store i32 %22, i32* %stack_var_-64.0.reg2mem, !insn.addr !424
  br label %dec_label_pc_401fcf, !insn.addr !424

dec_label_pc_401fc7:                              ; preds = %dec_label_pc_401f9f, %dec_label_pc_401f79, %dec_label_pc_401f81, %dec_label_pc_401f20
  %23 = call i128 @__asm_xorps(i128 %0, i128 %0), !insn.addr !425
  %24 = mul i64 %3, 4294967296
  %25 = sdiv i64 %24, 4294967296, !insn.addr !426
  call void @__asm_movlpd(i64 %25, i128 %23), !insn.addr !426
  %extract.t = trunc i64 %3 to i32
  store i32 %extract.t, i32* %stack_var_-68.0.off0.reg2mem, !insn.addr !426
  br label %dec_label_pc_401fcf, !insn.addr !426

dec_label_pc_401fcf:                              ; preds = %dec_label_pc_401fc7, %dec_label_pc_401fa9
  store i32 %2, i32* %stack_var_-116, align 4, !insn.addr !427
  %26 = call i32 @function_403540(i32 %2), !insn.addr !428
  %27 = call i32 @function_4040b0(), !insn.addr !429
  %28 = and i32 %27, 255, !insn.addr !430
  %29 = icmp eq i32 %28, 0, !insn.addr !431
  %30 = icmp eq i1 %29, false, !insn.addr !432
  br i1 %30, label %dec_label_pc_402004, label %dec_label_pc_401ff6, !insn.addr !432

dec_label_pc_401ff6:                              ; preds = %dec_label_pc_401fcf
  %31 = call i32 @function_4021b1(i32 4), !insn.addr !433
  ret i32 %31, !insn.addr !433

dec_label_pc_402004:                              ; preds = %dec_label_pc_401fcf
  %stack_var_-64.0.reload = load i32, i32* %stack_var_-64.0.reg2mem
  %stack_var_-68.0.off0.reload = load i32, i32* %stack_var_-68.0.off0.reg2mem
  %32 = ptrtoint i32* %stack_var_-116 to i32, !insn.addr !427
  %33 = call i32 @function_407e20(), !insn.addr !434
  %34 = and i32 %33, 448, !insn.addr !435
  %35 = icmp eq i32 %34, 64, !insn.addr !436
  %36 = icmp slt i32 %stack_var_-64.0.reload, 0, !insn.addr !437
  %or.cond45 = or i1 %36, %35
  store i32 %stack_var_-68.0.off0.reload, i32* %stack_var_-52.1.ph.reg2mem, !insn.addr !438
  store i32 %stack_var_-64.0.reload, i32* %stack_var_-48.1.ph.reg2mem, !insn.addr !438
  store i32 %32, i32* %esp.1.ph.reg2mem, !insn.addr !438
  br i1 %or.cond45, label %dec_label_pc_4020eb, label %dec_label_pc_402041.lr.ph, !insn.addr !438

dec_label_pc_402041.lr.ph:                        ; preds = %dec_label_pc_402004
  %37 = ptrtoint i32* %stack_var_-28 to i32
  %38 = ptrtoint i32* %stack_var_-32 to i32
  store i32 %32, i32* %esp.027.reg2mem
  store i32 %stack_var_-64.0.reload, i32* %stack_var_-48.026.reg2mem
  store i32 %stack_var_-68.0.off0.reload, i32* %stack_var_-52.025.reg2mem
  br label %dec_label_pc_402041

dec_label_pc_402041:                              ; preds = %dec_label_pc_402041.lr.ph, %dec_label_pc_4020a1
  %stack_var_-52.025.reload = load i32, i32* %stack_var_-52.025.reg2mem
  %stack_var_-48.026.reload = load i32, i32* %stack_var_-48.026.reg2mem
  %esp.027.reload = load i32, i32* %esp.027.reg2mem
  %39 = icmp eq i32 %stack_var_-48.026.reload, 0, !insn.addr !437
  %40 = icmp eq i1 %39, false, !insn.addr !439
  %41 = icmp ne i1 %40, true, !insn.addr !439
  %42 = icmp eq i32 %stack_var_-52.025.reload, 0, !insn.addr !440
  %or.cond5 = icmp eq i1 %42, %41
  store i32 0, i32* %stack_var_-52.1.ph.reg2mem, !insn.addr !439
  store i32 %stack_var_-48.026.reload, i32* %stack_var_-48.1.ph.reg2mem, !insn.addr !439
  store i32 %esp.027.reload, i32* %esp.1.ph.reg2mem, !insn.addr !439
  br i1 %or.cond5, label %dec_label_pc_4020eb, label %dec_label_pc_402049, !insn.addr !439

dec_label_pc_402049:                              ; preds = %dec_label_pc_402041
  %43 = call i32 @function_407e00(), !insn.addr !441
  %44 = and i32 %43, 255, !insn.addr !442
  %45 = add i32 %esp.027.reload, -4, !insn.addr !443
  %46 = inttoptr i32 %45 to i32*, !insn.addr !443
  store i32 %44, i32* %46, align 4, !insn.addr !443
  %47 = call i32 @function_408b30(), !insn.addr !444
  %48 = inttoptr i32 %47 to i32*, !insn.addr !445
  %49 = call i32 @"?sputc@?$basic_streambuf@DU?$char_traits@D@std@@@std@@QAEHD@Z"(i32* %48, i8 ptrtoint (i32* @2 to i8)), !insn.addr !445
  store i32 %49, i32* %stack_var_-28, align 4, !insn.addr !446
  %50 = call i32 @"?eof@?$char_traits@D@std@@SAHXZ"(), !insn.addr !447
  store i32 %50, i32* %stack_var_-32, align 4, !insn.addr !448
  %51 = add i32 %esp.027.reload, -8, !insn.addr !449
  %52 = inttoptr i32 %51 to i32*, !insn.addr !449
  store i32 %37, i32* %52, align 4, !insn.addr !449
  %53 = add i32 %esp.027.reload, -12, !insn.addr !450
  %54 = inttoptr i32 %53 to i32*, !insn.addr !450
  store i32 %38, i32* %54, align 4, !insn.addr !450
  %55 = load i32, i32* %stack_var_-32, align 4, !insn.addr !451
  %56 = inttoptr i32 %55 to i32*, !insn.addr !451
  %57 = call i32 @"?eq_int_type@?$char_traits@D@std@@SA_NABH0@Z"(i32* %56, i32* nonnull @2), !insn.addr !451
  %58 = and i32 %57, 255, !insn.addr !452
  %59 = icmp eq i32 %58, 0, !insn.addr !453
  store i32 %45, i32* %esp.4.reg2mem, !insn.addr !454
  br i1 %59, label %dec_label_pc_4020a1, label %dec_label_pc_40216f, !insn.addr !454

dec_label_pc_4020a1:                              ; preds = %dec_label_pc_402049
  %60 = add i32 %stack_var_-52.025.reload, -1, !insn.addr !455
  %61 = zext i1 %42 to i32, !insn.addr !456
  %62 = sub i32 %stack_var_-48.026.reload, %61, !insn.addr !456
  %63 = icmp slt i32 %62, 0, !insn.addr !437
  store i32 %45, i32* %esp.027.reg2mem, !insn.addr !457
  store i32 %62, i32* %stack_var_-48.026.reg2mem, !insn.addr !457
  store i32 %60, i32* %stack_var_-52.025.reg2mem, !insn.addr !457
  store i32 %60, i32* %stack_var_-52.1.ph.reg2mem, !insn.addr !457
  store i32 -1, i32* %stack_var_-48.1.ph.reg2mem, !insn.addr !457
  store i32 %45, i32* %esp.1.ph.reg2mem, !insn.addr !457
  br i1 %63, label %dec_label_pc_4020eb, label %dec_label_pc_402041, !insn.addr !457

dec_label_pc_4020eb:                              ; preds = %dec_label_pc_4020a1, %dec_label_pc_402041, %dec_label_pc_402004
  %esp.1.ph.reload = load i32, i32* %esp.1.ph.reg2mem
  %stack_var_-48.1.ph.reload = load i32, i32* %stack_var_-48.1.ph.reg2mem
  %stack_var_-52.1.ph.reload = load i32, i32* %stack_var_-52.1.ph.reg2mem
  %64 = add i32 %esp.1.ph.reload, -4, !insn.addr !458
  %65 = inttoptr i32 %64 to i32*, !insn.addr !458
  store i32 0, i32* %65, align 4, !insn.addr !458
  %66 = add i32 %esp.1.ph.reload, -8, !insn.addr !459
  %67 = inttoptr i32 %66 to i32*, !insn.addr !459
  store i32 %6, i32* %67, align 4, !insn.addr !459
  %68 = add i32 %esp.1.ph.reload, -12, !insn.addr !460
  %69 = inttoptr i32 %68 to i32*, !insn.addr !460
  store i32 %1, i32* %69, align 4, !insn.addr !460
  %70 = call i32 @function_408b30(), !insn.addr !461
  %71 = call i32 @function_409420(i32 ptrtoint (i32* @2 to i32), i32 ptrtoint (i32* @2 to i32), i32 ptrtoint (i32* @2 to i32)), !insn.addr !462
  %72 = icmp eq i32 %71, %6, !insn.addr !463
  %73 = icmp eq i32* %arg1, null, !insn.addr !464
  %or.cond10 = icmp eq i1 %73, %72
  %74 = icmp eq i1 %or.cond10, false, !insn.addr !465
  %75 = icmp slt i32 %stack_var_-48.1.ph.reload, 0, !insn.addr !466
  %or.cond46 = or i1 %75, %74
  store i32 %68, i32* %esp.4.reg2mem, !insn.addr !465
  br i1 %or.cond46, label %dec_label_pc_40216f, label %dec_label_pc_40210b.lr.ph, !insn.addr !465

dec_label_pc_40210b.lr.ph:                        ; preds = %dec_label_pc_4020eb
  %76 = ptrtoint i32* %stack_var_-36 to i32
  %77 = ptrtoint i32* %stack_var_-40 to i32
  store i32 %68, i32* %esp.322.reg2mem
  store i32 %stack_var_-48.1.ph.reload, i32* %stack_var_-48.221.reg2mem
  store i32 %stack_var_-52.1.ph.reload, i32* %stack_var_-52.220.reg2mem
  br label %dec_label_pc_40210b

dec_label_pc_40210b:                              ; preds = %dec_label_pc_40210b.lr.ph, %dec_label_pc_40216d
  %stack_var_-52.220.reload = load i32, i32* %stack_var_-52.220.reg2mem
  %stack_var_-48.221.reload = load i32, i32* %stack_var_-48.221.reg2mem
  %esp.322.reload = load i32, i32* %esp.322.reg2mem
  %78 = icmp eq i32 %stack_var_-48.221.reload, 0, !insn.addr !466
  %79 = icmp eq i1 %78, false, !insn.addr !467
  %80 = icmp ne i1 %79, true, !insn.addr !467
  %81 = icmp eq i32 %stack_var_-52.220.reload, 0, !insn.addr !468
  %or.cond7 = icmp eq i1 %81, %80
  store i32 %esp.322.reload, i32* %esp.4.reg2mem, !insn.addr !467
  br i1 %or.cond7, label %dec_label_pc_40216f, label %dec_label_pc_402113, !insn.addr !467

dec_label_pc_402113:                              ; preds = %dec_label_pc_40210b
  %82 = call i32 @function_407e00(), !insn.addr !469
  %83 = and i32 %82, 255, !insn.addr !470
  %84 = add i32 %esp.322.reload, -4, !insn.addr !471
  %85 = inttoptr i32 %84 to i32*, !insn.addr !471
  store i32 %83, i32* %85, align 4, !insn.addr !471
  %86 = call i32 @function_408b30(), !insn.addr !472
  %87 = inttoptr i32 %86 to i32*, !insn.addr !473
  %88 = call i32 @"?sputc@?$basic_streambuf@DU?$char_traits@D@std@@@std@@QAEHD@Z"(i32* %87, i8 ptrtoint (i32* @2 to i8)), !insn.addr !473
  store i32 %88, i32* %stack_var_-36, align 4, !insn.addr !474
  %89 = call i32 @"?eof@?$char_traits@D@std@@SAHXZ"(), !insn.addr !475
  store i32 %89, i32* %stack_var_-40, align 4, !insn.addr !476
  %90 = add i32 %esp.322.reload, -8, !insn.addr !477
  %91 = inttoptr i32 %90 to i32*, !insn.addr !477
  store i32 %76, i32* %91, align 4, !insn.addr !477
  %92 = add i32 %esp.322.reload, -12, !insn.addr !478
  %93 = inttoptr i32 %92 to i32*, !insn.addr !478
  store i32 %77, i32* %93, align 4, !insn.addr !478
  %94 = load i32, i32* %stack_var_-40, align 4, !insn.addr !479
  %95 = inttoptr i32 %94 to i32*, !insn.addr !479
  %96 = call i32 @"?eq_int_type@?$char_traits@D@std@@SA_NABH0@Z"(i32* %95, i32* nonnull @2), !insn.addr !479
  %97 = and i32 %96, 255, !insn.addr !480
  %98 = icmp eq i32 %97, 0, !insn.addr !481
  store i32 %84, i32* %esp.4.reg2mem, !insn.addr !482
  br i1 %98, label %dec_label_pc_40216d, label %dec_label_pc_40216f, !insn.addr !482

dec_label_pc_40216d:                              ; preds = %dec_label_pc_402113
  %99 = add i32 %stack_var_-52.220.reload, -1, !insn.addr !483
  %100 = zext i1 %81 to i32, !insn.addr !484
  %101 = sub i32 %stack_var_-48.221.reload, %100, !insn.addr !484
  %102 = icmp slt i32 %101, 0, !insn.addr !466
  store i32 %84, i32* %esp.322.reg2mem, !insn.addr !485
  store i32 %101, i32* %stack_var_-48.221.reg2mem, !insn.addr !485
  store i32 %99, i32* %stack_var_-52.220.reg2mem, !insn.addr !485
  store i32 %84, i32* %esp.4.reg2mem, !insn.addr !485
  br i1 %102, label %dec_label_pc_40216f, label %dec_label_pc_40210b, !insn.addr !485

dec_label_pc_40216f:                              ; preds = %dec_label_pc_402049, %dec_label_pc_40216d, %dec_label_pc_40210b, %dec_label_pc_402113, %dec_label_pc_4020eb
  %esp.4.reload = load i32, i32* %esp.4.reg2mem
  %103 = add i32 %esp.4.reload, -4, !insn.addr !486
  %104 = inttoptr i32 %103 to i32*, !insn.addr !486
  store i32 0, i32* %104, align 4, !insn.addr !486
  %105 = add i32 %esp.4.reload, -8, !insn.addr !487
  %106 = inttoptr i32 %105 to i32*, !insn.addr !487
  store i32 0, i32* %106, align 4, !insn.addr !487
  %107 = call i32 @"?width@ios_base@std@@QAE_J_J@Z"(i64 ptrtoint (i32* @2 to i64)), !insn.addr !488
  %108 = call i32 @function_4021a1(), !insn.addr !489
  ret i32 %108, !insn.addr !489
}

define i32 @function_402185() local_unnamed_addr {
dec_label_pc_402185:
  %0 = call i32 @__decompiler_undefined_function_0()
  %1 = add i32 %0, 8, !insn.addr !490
  %2 = inttoptr i32 %1 to i32*, !insn.addr !490
  %3 = load i32, i32* %2, align 4, !insn.addr !490
  %4 = inttoptr i32 %3 to i32*, !insn.addr !491
  %5 = load i32, i32* %4, align 4, !insn.addr !491
  %6 = add i32 %5, 4, !insn.addr !492
  %7 = inttoptr i32 %6 to i32*, !insn.addr !492
  %8 = load i32, i32* %7, align 4, !insn.addr !492
  %9 = add i32 %8, %3, !insn.addr !492
  %10 = call i32 @"?setstate@?$basic_ios@DU?$char_traits@D@std@@@std@@QAEXH_N@Z"(i32 %9, i1 false), !insn.addr !493
  ret i32 4202922, !insn.addr !494
}

define i32 @function_4021a1() local_unnamed_addr {
dec_label_pc_4021a1:
  %0 = call i32 @__decompiler_undefined_function_0()
  %1 = add i32 %0, -4, !insn.addr !495
  %2 = inttoptr i32 %1 to i32*, !insn.addr !495
  store i32 -1, i32* %2, align 4, !insn.addr !495
  %3 = call i32 @function_4021b1(i32 ptrtoint (i32* @2 to i32)), !insn.addr !496
  ret i32 %3, !insn.addr !496
}

define i32 @function_4021b1(i32 %arg1) local_unnamed_addr {
dec_label_pc_4021b1:
  %0 = call i32 @__decompiler_undefined_function_0()
  %1 = add i32 %0, -20, !insn.addr !497
  %2 = inttoptr i32 %1 to i32*, !insn.addr !497
  %3 = load i32, i32* %2, align 4, !insn.addr !497
  %4 = and i32 %3, 1
  %5 = icmp ne i32 %4, 0, !insn.addr !498
  %6 = add i32 %0, 8, !insn.addr !499
  %7 = inttoptr i32 %6 to i32*, !insn.addr !499
  %8 = load i32, i32* %7, align 4, !insn.addr !499
  %9 = inttoptr i32 %8 to i32*, !insn.addr !500
  %10 = load i32, i32* %9, align 4, !insn.addr !500
  %11 = add i32 %10, 4, !insn.addr !501
  %12 = inttoptr i32 %11 to i32*, !insn.addr !501
  %13 = load i32, i32* %12, align 4, !insn.addr !501
  %14 = add i32 %13, %8, !insn.addr !501
  %15 = call i32 @"?setstate@?$basic_ios@DU?$char_traits@D@std@@@std@@QAEXH_N@Z"(i32 %14, i1 %5), !insn.addr !502
  %16 = load i32, i32* %7, align 4, !insn.addr !503
  %17 = add i32 %0, -40, !insn.addr !504
  %18 = inttoptr i32 %17 to i32*, !insn.addr !504
  store i32 %16, i32* %18, align 4, !insn.addr !504
  %19 = call i32 @function_403b60(), !insn.addr !505
  %20 = load i32, i32* %18, align 4, !insn.addr !506
  %21 = add i32 %0, -12, !insn.addr !507
  %22 = inttoptr i32 %21 to i32*, !insn.addr !507
  %23 = load i32, i32* %22, align 4, !insn.addr !507
  call void @__writefsdword(i32 0, i32 %23), !insn.addr !508
  ret i32 %20, !insn.addr !509
}

define i1 @"??$?8DD@std@@YA_NABV?$allocator@D@0@0@Z"(i32* %arg1, i32* %arg2) local_unnamed_addr {
dec_label_pc_4021f0:
  ret i1 true, !insn.addr !510
}

define i32 @function_402220(i32 %arg1) local_unnamed_addr {
dec_label_pc_402220:
  %0 = call i32 @__decompiler_undefined_function_0()
  %1 = and i32 %0, -256, !insn.addr !511
  ret i32 %1, !insn.addr !512
}

declare i32 @"??$_Fgetc@D@std@@YA_NAADPAU_iobuf@@@Z"(i8*, i32*) local_unnamed_addr

declare i32 @"??$_Fputc@D@std@@YA_NDPAU_iobuf@@@Z"(i8, i32*) local_unnamed_addr

define i32 @function_4022e0(i32 %arg1, i32 %arg2) local_unnamed_addr {
dec_label_pc_4022e0:
  %0 = call i32 @__decompiler_undefined_function_0()
  %stack_var_12 = alloca i32, align 4
  %1 = inttoptr i32 %arg1 to i32*, !insn.addr !513
  %2 = load i32, i32* %1, align 4, !insn.addr !513
  %3 = inttoptr i32 %2 to i8*, !insn.addr !514
  %4 = load i8, i8* %3, align 1, !insn.addr !514
  %5 = zext i8 %4 to i32, !insn.addr !514
  %6 = call i32 @function_4023a0(i32 %5, i32 0, i32* nonnull %stack_var_12), !insn.addr !515
  %7 = trunc i32 %6 to i8, !insn.addr !516
  %8 = add i32 %0, 12, !insn.addr !516
  %9 = inttoptr i32 %8 to i8*, !insn.addr !516
  store i8 %7, i8* %9, align 1, !insn.addr !516
  %10 = add i32 %arg1, 4, !insn.addr !517
  %11 = inttoptr i32 %10 to i32*, !insn.addr !517
  %12 = load i32, i32* %11, align 4, !insn.addr !517
  %13 = inttoptr i32 %12 to i8*, !insn.addr !518
  %14 = load i8, i8* %13, align 1, !insn.addr !518
  %15 = zext i8 %14 to i32, !insn.addr !518
  %16 = call i32 @function_4023a0(i32 %15, i32 0, i32* nonnull %stack_var_12), !insn.addr !519
  %17 = trunc i32 %16 to i8, !insn.addr !520
  %18 = add i32 %0, 13, !insn.addr !520
  %19 = inttoptr i32 %18 to i8*, !insn.addr !520
  store i8 %17, i8* %19, align 1, !insn.addr !520
  ret i32 %16, !insn.addr !521
}

define i32 @function_402340(i32 %arg1) local_unnamed_addr {
dec_label_pc_402340:
  %0 = load i32, i32* @global_var_43452c, align 4, !insn.addr !522
  %1 = call i32 @__readfsdword(i32 44), !insn.addr !523
  %2 = mul i32 %0, 4, !insn.addr !524
  %3 = add i32 %1, %2, !insn.addr !524
  %4 = inttoptr i32 %3 to i32*, !insn.addr !524
  %5 = load i32, i32* %4, align 4, !insn.addr !524
  %6 = load void ()*, void ()** @global_var_4340b0, align 4, !insn.addr !525
  %7 = ptrtoint void ()* %6 to i32, !insn.addr !525
  %8 = add i32 %5, 4, !insn.addr !526
  %9 = inttoptr i32 %8 to i32*, !insn.addr !526
  %10 = load i32, i32* %9, align 4, !insn.addr !526
  %11 = icmp slt i32 %10, %7, !insn.addr !527
  br i1 %11, label %dec_label_pc_40235f, label %dec_label_pc_402399, !insn.addr !527

dec_label_pc_40235f:                              ; preds = %dec_label_pc_402340
  %12 = call i32 @__Init_thread_header(i32* bitcast (void ()** @global_var_4340b0 to i32*)), !insn.addr !528
  %13 = load void ()*, void ()** @global_var_4340b0, align 4, !insn.addr !529
  %14 = icmp eq void ()* %13, inttoptr (i32 -1 to void ()*), !insn.addr !529
  %15 = icmp eq i1 %14, false, !insn.addr !530
  br i1 %15, label %dec_label_pc_402399, label %dec_label_pc_402375, !insn.addr !530

dec_label_pc_402375:                              ; preds = %dec_label_pc_40235f
  %16 = call i32 @"??0?$_Immortalizer@V_Iostream_error_category@std@@@std@@QAE@XZ"(), !insn.addr !531
  %17 = call i32 @_atexit(void ()* bitcast (i32* @global_var_426f80 to void ()*)), !insn.addr !532
  %18 = call i32 @__Init_thread_footer(i32* bitcast (void ()** @global_var_4340b0 to i32*)), !insn.addr !533
  br label %dec_label_pc_402399, !insn.addr !534

dec_label_pc_402399:                              ; preds = %dec_label_pc_402340, %dec_label_pc_402375, %dec_label_pc_40235f
  ret i32 ptrtoint (i32* @global_var_4340a8 to i32), !insn.addr !535
}

define i32 @function_4023a0(i32 %arg1, i32 %arg2, i32* %arg3) local_unnamed_addr {
dec_label_pc_4023a0:
  %0 = call i32 @__decompiler_undefined_function_0()
  %1 = and i32 %arg1, 255, !insn.addr !536
  %2 = and i32 %0, -256, !insn.addr !536
  %3 = or i32 %2, %1, !insn.addr !536
  ret i32 %3, !insn.addr !537
}

define i32 @function_4023b0(i32 %arg1) local_unnamed_addr {
dec_label_pc_4023b0:
  %stack_var_4.02.reg2mem = alloca i32, !insn.addr !538
  %stack_var_-8.03.reg2mem = alloca i32, !insn.addr !538
  %stack_var_-12.0.in4.reg2mem = alloca i32, !insn.addr !538
  %0 = inttoptr i32 %arg1 to i8*, !insn.addr !539
  %1 = call i32 @_strlen(i8* %0), !insn.addr !539
  %2 = add i32 %1, 1, !insn.addr !540
  %3 = call i32 @function_413868(i32 %2, i32 1), !insn.addr !541
  %4 = icmp eq i32 %3, 0, !insn.addr !542
  %5 = icmp eq i1 %4, false, !insn.addr !543
  br i1 %5, label %dec_label_pc_4023e4, label %dec_label_pc_4023df, !insn.addr !543

dec_label_pc_4023df:                              ; preds = %dec_label_pc_4023b0
  %6 = call i32 @"?_Xbad_alloc@std@@YAXXZ"(), !insn.addr !544
  br label %dec_label_pc_4023e4, !insn.addr !544

dec_label_pc_4023e4:                              ; preds = %dec_label_pc_4023df, %dec_label_pc_4023b0
  %7 = icmp eq i32 %2, 0, !insn.addr !545
  store i32 %3, i32* %stack_var_-12.0.in4.reg2mem, !insn.addr !546
  store i32 %2, i32* %stack_var_-8.03.reg2mem, !insn.addr !546
  store i32 %arg1, i32* %stack_var_4.02.reg2mem, !insn.addr !546
  br i1 %7, label %dec_label_pc_402419, label %dec_label_pc_40240d, !insn.addr !546

dec_label_pc_40240d:                              ; preds = %dec_label_pc_4023e4, %dec_label_pc_40240d
  %stack_var_4.02.reload = load i32, i32* %stack_var_4.02.reg2mem
  %stack_var_-8.03.reload = load i32, i32* %stack_var_-8.03.reg2mem
  %stack_var_-12.0.in4.reload = load i32, i32* %stack_var_-12.0.in4.reg2mem
  %stack_var_-12.0 = inttoptr i32 %stack_var_-12.0.in4.reload to i8*
  %8 = inttoptr i32 %stack_var_4.02.reload to i8*, !insn.addr !547
  %9 = load i8, i8* %8, align 1, !insn.addr !547
  store i8 %9, i8* %stack_var_-12.0, align 1, !insn.addr !548
  %10 = add i32 %stack_var_-8.03.reload, -1, !insn.addr !549
  %11 = add i32 %stack_var_-12.0.in4.reload, 1, !insn.addr !550
  %12 = add i32 %stack_var_4.02.reload, 1, !insn.addr !551
  %13 = icmp eq i32 %10, 0, !insn.addr !545
  store i32 %11, i32* %stack_var_-12.0.in4.reg2mem, !insn.addr !546
  store i32 %10, i32* %stack_var_-8.03.reg2mem, !insn.addr !546
  store i32 %12, i32* %stack_var_4.02.reg2mem, !insn.addr !546
  br i1 %13, label %dec_label_pc_402419, label %dec_label_pc_40240d, !insn.addr !546

dec_label_pc_402419:                              ; preds = %dec_label_pc_40240d, %dec_label_pc_4023e4
  ret i32 %3, !insn.addr !552
}

define void @"??$_Pocca@U?$_Wrap_alloc@V?$allocator@D@std@@@std@@@std@@YAXAAU?$_Wrap_alloc@V?$allocator@D@std@@@0@ABU10@U?$integral_constant@_N$0A@@0@@Z"(i32* %arg1, i32* %arg2, i32 %arg3) local_unnamed_addr {
dec_label_pc_402480:
  ret void, !insn.addr !553
}

define i8* @"??$_Unfancy@D@std@@YAPADPAD@Z"(i32* %result, i8* %arg2) local_unnamed_addr {
dec_label_pc_402490:
  %0 = bitcast i32* %result to i8**, !insn.addr !554
  %1 = call i8** @"??$forward@AAPAD@std@@YAAAPADAAPAD@Z"(i8** %0), !insn.addr !554
  %2 = bitcast i8** %1 to i8*, !insn.addr !555
  ret i8* %2, !insn.addr !555
}

declare i32 @"??$construct@PADAAPAD@?$_Wrap_alloc@V?$allocator@D@std@@@std@@QAEXPAPADAAPAD@Z"(i8**, i8**) local_unnamed_addr

declare i32 @"??$destroy@PAD@?$_Wrap_alloc@V?$allocator@D@std@@@std@@QAEXPAPAD@Z"(i8**) local_unnamed_addr

define i32 @function_402590(i32 %arg1) local_unnamed_addr {
dec_label_pc_402590:
  %0 = call i32 @__decompiler_undefined_function_0()
  %1 = trunc i32 %0 to i8, !insn.addr !556
  %2 = inttoptr i32 %arg1 to i32*, !insn.addr !557
  %3 = load i32, i32* %2, align 4, !insn.addr !557
  %4 = add i32 %3, 4, !insn.addr !558
  %5 = inttoptr i32 %4 to i32*, !insn.addr !558
  %6 = load i32, i32* %5, align 4, !insn.addr !558
  %7 = add i32 %6, %arg1, !insn.addr !558
  %8 = inttoptr i32 %7 to i32*, !insn.addr !559
  %9 = call i8 @"?widen@?$basic_ios@DU?$char_traits@D@std@@@std@@QBEDD@Z"(i32* %8, i32* inttoptr (i32 10 to i32*), i8 %1), !insn.addr !559
  %10 = zext i8 %9 to i32
  %11 = call i32 @function_4089e0(i32 %10), !insn.addr !560
  %12 = call i32 @function_407e40(), !insn.addr !561
  ret i32 %arg1, !insn.addr !562
}

define i8** @"??$forward@AAPAD@std@@YAAAPADAAPAD@Z"(i8** %arg1) local_unnamed_addr {
dec_label_pc_4025c0:
  ret i8** %arg1, !insn.addr !563
}

define i32* @"??$use_facet@V?$codecvt@DDU_Mbstatet@@@std@@@std@@YAABV?$codecvt@DDU_Mbstatet@@@0@ABVlocale@0@@Z"(i32* %arg1) local_unnamed_addr {
dec_label_pc_4025d0:
  %stack_var_-12.0.reg2mem = alloca i32, !insn.addr !564
  %stack_var_-8 = alloca i32, align 4
  %stack_var_-24 = alloca i32, align 4
  %stack_var_-40 = alloca i32, align 4
  %0 = ptrtoint i32* %stack_var_-24 to i32, !insn.addr !565
  %1 = call i32 @"??0_Lockit@std@@QAE@H@Z"(i32 %0), !insn.addr !566
  %2 = load i32, i32* @global_var_4340b4, align 4, !insn.addr !567
  store i32 %2, i32* %stack_var_-8, align 4, !insn.addr !568
  %3 = call i32 @"??Bid@locale@std@@QAEIXZ"(), !insn.addr !569
  %4 = call i32 @function_4054b0(i32 %3), !insn.addr !570
  %5 = icmp eq i32 %4, 0, !insn.addr !571
  store i32 %4, i32* %stack_var_-12.0.reg2mem, !insn.addr !572
  br i1 %5, label %dec_label_pc_40260c, label %dec_label_pc_402675, !insn.addr !572

dec_label_pc_40260c:                              ; preds = %dec_label_pc_4025d0
  %6 = icmp eq i32 %2, 0, !insn.addr !573
  store i32 %2, i32* %stack_var_-12.0.reg2mem, !insn.addr !574
  br i1 %6, label %dec_label_pc_40261a, label %dec_label_pc_402675, !insn.addr !574

dec_label_pc_40261a:                              ; preds = %dec_label_pc_40260c
  %7 = ptrtoint i32* %arg1 to i32
  %8 = call i32 @function_405210(i32* nonnull %stack_var_-8, i32 %7), !insn.addr !575
  %9 = icmp eq i32 %8, -1, !insn.addr !576
  %10 = icmp eq i1 %9, false, !insn.addr !577
  br i1 %10, label %dec_label_pc_402647, label %dec_label_pc_40262f, !insn.addr !577

dec_label_pc_40262f:                              ; preds = %dec_label_pc_40261a
  %11 = call i32 @"??0bad_alloc@std@@QAE@XZ"(), !insn.addr !578
  %12 = call i32 @"__CxxThrowException@8"(i32* nonnull %stack_var_-40, i32* nonnull @global_var_43114c), !insn.addr !579
  store i32 0, i32* %stack_var_-12.0.reg2mem, !insn.addr !580
  br label %dec_label_pc_402675, !insn.addr !580

dec_label_pc_402647:                              ; preds = %dec_label_pc_40261a
  %13 = load i32, i32* %stack_var_-8, align 4
  store i32 %13, i32* @global_var_4340b4, align 4, !insn.addr !581
  %14 = inttoptr i32 %13 to i32*, !insn.addr !582
  %15 = call i32 @"?_Facet_Register@std@@YAXPAV_Facet_base@1@@Z"(i32* %14), !insn.addr !582
  store i32 %13, i32* %stack_var_-12.0.reg2mem, !insn.addr !583
  br label %dec_label_pc_402675, !insn.addr !583

dec_label_pc_402675:                              ; preds = %dec_label_pc_40260c, %dec_label_pc_4025d0, %dec_label_pc_402647, %dec_label_pc_40262f
  %stack_var_-12.0.reload = load i32, i32* %stack_var_-12.0.reg2mem
  %16 = call i32 @"??1_Lockit@std@@QAE@XZ"(), !insn.addr !584
  %17 = inttoptr i32 %stack_var_-12.0.reload to i32*, !insn.addr !585
  ret i32* %17, !insn.addr !585
}

define i32 @function_402690(i32 %arg1) local_unnamed_addr {
dec_label_pc_402690:
  %stack_var_-12.0.reg2mem = alloca i32, !insn.addr !586
  %stack_var_-8 = alloca i32, align 4
  %stack_var_-24 = alloca i32, align 4
  %stack_var_-40 = alloca i32, align 4
  %0 = ptrtoint i32* %stack_var_-24 to i32, !insn.addr !587
  %1 = call i32 @"??0_Lockit@std@@QAE@H@Z"(i32 %0), !insn.addr !588
  %2 = load i32, i32* @global_var_4340a4, align 4, !insn.addr !589
  store i32 %2, i32* %stack_var_-8, align 4, !insn.addr !590
  %3 = call i32 @"??Bid@locale@std@@QAEIXZ"(), !insn.addr !591
  %4 = call i32 @function_4054b0(i32 %3), !insn.addr !592
  %5 = icmp eq i32 %4, 0, !insn.addr !593
  store i32 %4, i32* %stack_var_-12.0.reg2mem, !insn.addr !594
  br i1 %5, label %dec_label_pc_4026cc, label %dec_label_pc_402735, !insn.addr !594

dec_label_pc_4026cc:                              ; preds = %dec_label_pc_402690
  %6 = icmp eq i32 %2, 0, !insn.addr !595
  store i32 %2, i32* %stack_var_-12.0.reg2mem, !insn.addr !596
  br i1 %6, label %dec_label_pc_4026da, label %dec_label_pc_402735, !insn.addr !596

dec_label_pc_4026da:                              ; preds = %dec_label_pc_4026cc
  %7 = call i32 @function_405290(i32* nonnull %stack_var_-8, i32 %arg1), !insn.addr !597
  %8 = icmp eq i32 %7, -1, !insn.addr !598
  %9 = icmp eq i1 %8, false, !insn.addr !599
  br i1 %9, label %dec_label_pc_402707, label %dec_label_pc_4026ef, !insn.addr !599

dec_label_pc_4026ef:                              ; preds = %dec_label_pc_4026da
  %10 = call i32 @"??0bad_alloc@std@@QAE@XZ"(), !insn.addr !600
  %11 = call i32 @"__CxxThrowException@8"(i32* nonnull %stack_var_-40, i32* nonnull @global_var_43114c), !insn.addr !601
  store i32 0, i32* %stack_var_-12.0.reg2mem, !insn.addr !602
  br label %dec_label_pc_402735, !insn.addr !602

dec_label_pc_402707:                              ; preds = %dec_label_pc_4026da
  %12 = load i32, i32* %stack_var_-8, align 4
  store i32 %12, i32* @global_var_4340a4, align 4, !insn.addr !603
  %13 = inttoptr i32 %12 to i32*, !insn.addr !604
  %14 = call i32 @"?_Facet_Register@std@@YAXPAV_Facet_base@1@@Z"(i32* %13), !insn.addr !604
  store i32 %12, i32* %stack_var_-12.0.reg2mem, !insn.addr !605
  br label %dec_label_pc_402735, !insn.addr !605

dec_label_pc_402735:                              ; preds = %dec_label_pc_4026cc, %dec_label_pc_402690, %dec_label_pc_402707, %dec_label_pc_4026ef
  %stack_var_-12.0.reload = load i32, i32* %stack_var_-12.0.reg2mem
  %15 = call i32 @"??1_Lockit@std@@QAE@XZ"(), !insn.addr !606
  ret i32 %stack_var_-12.0.reload, !insn.addr !607
}

define i32 @function_402750(i32 %arg1) local_unnamed_addr {
dec_label_pc_402750:
  %stack_var_-12.0.reg2mem = alloca i32, !insn.addr !608
  %stack_var_-8 = alloca i32, align 4
  %stack_var_-24 = alloca i32, align 4
  %stack_var_-40 = alloca i32, align 4
  %0 = ptrtoint i32* %stack_var_-24 to i32, !insn.addr !609
  %1 = call i32 @"??0_Lockit@std@@QAE@H@Z"(i32 %0), !insn.addr !610
  %2 = load i32, i32* @global_var_4340b8, align 4, !insn.addr !611
  store i32 %2, i32* %stack_var_-8, align 4, !insn.addr !612
  %3 = call i32 @"??Bid@locale@std@@QAEIXZ"(), !insn.addr !613
  %4 = call i32 @function_4054b0(i32 %3), !insn.addr !614
  %5 = icmp eq i32 %4, 0, !insn.addr !615
  store i32 %4, i32* %stack_var_-12.0.reg2mem, !insn.addr !616
  br i1 %5, label %dec_label_pc_40278c, label %dec_label_pc_4027f5, !insn.addr !616

dec_label_pc_40278c:                              ; preds = %dec_label_pc_402750
  %6 = icmp eq i32 %2, 0, !insn.addr !617
  store i32 %2, i32* %stack_var_-12.0.reg2mem, !insn.addr !618
  br i1 %6, label %dec_label_pc_40279a, label %dec_label_pc_4027f5, !insn.addr !618

dec_label_pc_40279a:                              ; preds = %dec_label_pc_40278c
  %7 = call i32 @function_405310(i32* nonnull %stack_var_-8, i32 %arg1), !insn.addr !619
  %8 = icmp eq i32 %7, -1, !insn.addr !620
  %9 = icmp eq i1 %8, false, !insn.addr !621
  br i1 %9, label %dec_label_pc_4027c7, label %dec_label_pc_4027af, !insn.addr !621

dec_label_pc_4027af:                              ; preds = %dec_label_pc_40279a
  %10 = call i32 @"??0bad_alloc@std@@QAE@XZ"(), !insn.addr !622
  %11 = call i32 @"__CxxThrowException@8"(i32* nonnull %stack_var_-40, i32* nonnull @global_var_43114c), !insn.addr !623
  store i32 0, i32* %stack_var_-12.0.reg2mem, !insn.addr !624
  br label %dec_label_pc_4027f5, !insn.addr !624

dec_label_pc_4027c7:                              ; preds = %dec_label_pc_40279a
  %12 = load i32, i32* %stack_var_-8, align 4
  store i32 %12, i32* @global_var_4340b8, align 4, !insn.addr !625
  %13 = inttoptr i32 %12 to i32*, !insn.addr !626
  %14 = call i32 @"?_Facet_Register@std@@YAXPAV_Facet_base@1@@Z"(i32* %13), !insn.addr !626
  store i32 %12, i32* %stack_var_-12.0.reg2mem, !insn.addr !627
  br label %dec_label_pc_4027f5, !insn.addr !627

dec_label_pc_4027f5:                              ; preds = %dec_label_pc_40278c, %dec_label_pc_402750, %dec_label_pc_4027c7, %dec_label_pc_4027af
  %stack_var_-12.0.reload = load i32, i32* %stack_var_-12.0.reg2mem
  %15 = call i32 @"??1_Lockit@std@@QAE@XZ"(), !insn.addr !628
  ret i32 %stack_var_-12.0.reload, !insn.addr !629
}

define i32 @function_402810(i32 %arg1) local_unnamed_addr {
dec_label_pc_402810:
  %stack_var_-12.0.reg2mem = alloca i32, !insn.addr !630
  %stack_var_-8 = alloca i32, align 4
  %stack_var_-24 = alloca i32, align 4
  %stack_var_-40 = alloca i32, align 4
  %0 = ptrtoint i32* %stack_var_-24 to i32, !insn.addr !631
  %1 = call i32 @"??0_Lockit@std@@QAE@H@Z"(i32 %0), !insn.addr !632
  %2 = load i32, i32* @global_var_4340bc, align 4, !insn.addr !633
  store i32 %2, i32* %stack_var_-8, align 4, !insn.addr !634
  %3 = call i32 @"??Bid@locale@std@@QAEIXZ"(), !insn.addr !635
  %4 = call i32 @function_4054b0(i32 %3), !insn.addr !636
  %5 = icmp eq i32 %4, 0, !insn.addr !637
  store i32 %4, i32* %stack_var_-12.0.reg2mem, !insn.addr !638
  br i1 %5, label %dec_label_pc_40284c, label %dec_label_pc_4028b5, !insn.addr !638

dec_label_pc_40284c:                              ; preds = %dec_label_pc_402810
  %6 = icmp eq i32 %2, 0, !insn.addr !639
  store i32 %2, i32* %stack_var_-12.0.reg2mem, !insn.addr !640
  br i1 %6, label %dec_label_pc_40285a, label %dec_label_pc_4028b5, !insn.addr !640

dec_label_pc_40285a:                              ; preds = %dec_label_pc_40284c
  %7 = call i32 @function_405390(i32* nonnull %stack_var_-8, i32 %arg1), !insn.addr !641
  %8 = icmp eq i32 %7, -1, !insn.addr !642
  %9 = icmp eq i1 %8, false, !insn.addr !643
  br i1 %9, label %dec_label_pc_402887, label %dec_label_pc_40286f, !insn.addr !643

dec_label_pc_40286f:                              ; preds = %dec_label_pc_40285a
  %10 = call i32 @"??0bad_alloc@std@@QAE@XZ"(), !insn.addr !644
  %11 = call i32 @"__CxxThrowException@8"(i32* nonnull %stack_var_-40, i32* nonnull @global_var_43114c), !insn.addr !645
  store i32 0, i32* %stack_var_-12.0.reg2mem, !insn.addr !646
  br label %dec_label_pc_4028b5, !insn.addr !646

dec_label_pc_402887:                              ; preds = %dec_label_pc_40285a
  %12 = load i32, i32* %stack_var_-8, align 4
  store i32 %12, i32* @global_var_4340bc, align 4, !insn.addr !647
  %13 = inttoptr i32 %12 to i32*, !insn.addr !648
  %14 = call i32 @"?_Facet_Register@std@@YAXPAV_Facet_base@1@@Z"(i32* %13), !insn.addr !648
  store i32 %12, i32* %stack_var_-12.0.reg2mem, !insn.addr !649
  br label %dec_label_pc_4028b5, !insn.addr !649

dec_label_pc_4028b5:                              ; preds = %dec_label_pc_40284c, %dec_label_pc_402810, %dec_label_pc_402887, %dec_label_pc_40286f
  %stack_var_-12.0.reload = load i32, i32* %stack_var_-12.0.reg2mem
  %15 = call i32 @"??1_Lockit@std@@QAE@XZ"(), !insn.addr !650
  ret i32 %stack_var_-12.0.reload, !insn.addr !651
}

declare i32 @"??0?$_Immortalizer@V_Iostream_error_category@std@@@std@@QAE@XZ"() local_unnamed_addr

declare i32 @"??$?0U?$_Wrap_alloc@V?$allocator@D@std@@@std@@X@?$_String_alloc@U?$_String_base_types@DV?$allocator@D@std@@@std@@@std@@QAE@$$QAU?$_Wrap_alloc@V?$allocator@D@std@@@1@@Z"(i32*) local_unnamed_addr

define i32 @function_402940(i32 %arg1) local_unnamed_addr {
dec_label_pc_402940:
  %0 = call i32 @__decompiler_undefined_function_0()
  %1 = call i8 @__decompiler_undefined_function_5()
  %2 = zext i8 %1 to i32, !insn.addr !652
  %3 = inttoptr i32 %2 to i32*, !insn.addr !653
  %4 = call i32 @"??$?0U?$_Wrap_alloc@V?$allocator@D@std@@@std@@$$V@?$_Compressed_pair@U?$_Wrap_alloc@V?$allocator@D@std@@@std@@V?$_String_val@U?$_Simple_types@D@std@@@2@$00@std@@QAE@U_One_then_variadic_args_t@1@$$QAU?$_Wrap_alloc@V?$allocator@D@std@@@1@@Z"(i32 %0, i32* %3), !insn.addr !653
  ret i32 %0, !insn.addr !654
}

define i32 @function_402970(i32 %arg1, i32 %arg2, i32 %arg3) local_unnamed_addr {
dec_label_pc_402970:
  %0 = call i32 @__decompiler_undefined_function_0()
  %1 = inttoptr i32 %0 to i32*, !insn.addr !655
  %2 = inttoptr i32 %arg2 to i8**, !insn.addr !655
  call void @"??$destroy@PAD@?$allocator@D@std@@QAEXPAPAD@Z"(i32* %1, i8** %2), !insn.addr !655
  store i32 %arg1, i32* %1, align 4, !insn.addr !656
  ret i32 %0, !insn.addr !657
}

define i32 @function_4029a0(i32 %arg1, i32 %arg2) local_unnamed_addr {
dec_label_pc_4029a0:
  %0 = call i32 @__decompiler_undefined_function_0()
  %1 = call i32 @__decompiler_undefined_function_0()
  %2 = call i32 @function_402970(i32 %arg1, i32 %arg2, i32 %0), !insn.addr !658
  ret i32 %1, !insn.addr !659
}

define i32 @"??0?$_String_val@U?$_Simple_types@D@std@@@std@@QAE@XZ"() local_unnamed_addr {
dec_label_pc_4029c0:
  %0 = call i32 @__decompiler_undefined_function_0()
  %1 = add i32 %0, 16, !insn.addr !660
  %2 = inttoptr i32 %1 to i32*, !insn.addr !660
  store i32 0, i32* %2, align 4, !insn.addr !660
  %3 = add i32 %0, 20, !insn.addr !661
  %4 = inttoptr i32 %3 to i32*, !insn.addr !661
  store i32 0, i32* %4, align 4, !insn.addr !661
  ret i32 %0, !insn.addr !662
}

define i32 @"??$?0V?$allocator@D@std@@@?$_Wrap_alloc@V?$allocator@D@std@@@std@@QAE@$$QAV?$allocator@D@1@@Z"(i32* %result, i32* %arg2) local_unnamed_addr {
dec_label_pc_4029f0:
  %0 = ptrtoint i32* %result to i32
  %1 = call i32 @"??$?0D@?$allocator@U_Container_proxy@std@@@std@@QAE@ABV?$allocator@D@1@@Z"(i32* %result), !insn.addr !663
  ret i32 %0, !insn.addr !664
}

define i32 @function_402a10() local_unnamed_addr {
dec_label_pc_402a10:
  %0 = call i32 @__decompiler_undefined_function_0()
  %1 = inttoptr i32 %0 to i32*, !insn.addr !665
  store i32 0, i32* %1, align 4, !insn.addr !665
  %2 = add i32 %0, 4, !insn.addr !666
  %3 = inttoptr i32 %2 to i8*, !insn.addr !666
  store i8 0, i8* %3, align 1, !insn.addr !666
  ret i32 %0, !insn.addr !667
}

declare i32 @"??0?$_Yarn@_W@std@@QAE@XZ"() local_unnamed_addr

declare i32 @"??$?0D@?$allocator@U_Container_proxy@std@@@std@@QAE@ABV?$allocator@D@1@@Z"(i32*) local_unnamed_addr

define i32 @function_402a60(i32 %arg1) local_unnamed_addr {
dec_label_pc_402a60:
  %0 = call i32 @__decompiler_undefined_function_0()
  %1 = call i32 @"??0?$basic_streambuf@DU?$char_traits@D@std@@@std@@IAE@XZ"(), !insn.addr !668
  %2 = inttoptr i32 %0 to i32*, !insn.addr !669
  store i32 ptrtoint (%vtable_4275fc_type* @global_var_4275fc to i32), i32* %2, align 4, !insn.addr !669
  %3 = call i32 @"?_Init@?$basic_filebuf@DU?$char_traits@D@std@@@std@@IAEXPAU_iobuf@@W4_Initfl@12@@Z"(i32* %2, i32 %arg1), !insn.addr !670
  ret i32 %0, !insn.addr !671
}

define i32 @function_402a90(i32 %arg1, i32 %arg2, i32 %arg3, i32 %arg4) local_unnamed_addr {
dec_label_pc_402a90:
  %stack_var_-12.0.reg2mem = alloca i32, !insn.addr !672
  %0 = call i32 @__decompiler_undefined_function_0()
  %1 = icmp eq i32 %arg4, 0, !insn.addr !673
  store i32 0, i32* %stack_var_-12.0.reg2mem, !insn.addr !674
  br i1 %1, label %dec_label_pc_402abe, label %dec_label_pc_402aa6, !insn.addr !674

dec_label_pc_402aa6:                              ; preds = %dec_label_pc_402a90
  %2 = inttoptr i32 %0 to i32*, !insn.addr !675
  store i32 ptrtoint (i32* @global_var_427640 to i32), i32* %2, align 4, !insn.addr !675
  %3 = call i32 @"??0?$basic_ios@DU?$char_traits@D@std@@@std@@IAE@XZ"(), !insn.addr !676
  store i32 1, i32* %stack_var_-12.0.reg2mem, !insn.addr !677
  br label %dec_label_pc_402abe, !insn.addr !677

dec_label_pc_402abe:                              ; preds = %dec_label_pc_402aa6, %dec_label_pc_402a90
  %stack_var_-12.0.reload = load i32, i32* %stack_var_-12.0.reg2mem
  %4 = add i32 %0, 16, !insn.addr !678
  %5 = call i32 @"??0?$basic_ostream@DU?$char_traits@D@std@@@std@@QAE@PAV?$basic_streambuf@DU?$char_traits@D@std@@@1@_N@Z.55"(i32 %0, i32 %4, i32 0, i32 0, i32 %stack_var_-12.0.reload), !insn.addr !679
  %6 = add i32 %0, 4, !insn.addr !680
  %7 = inttoptr i32 %6 to i32*, !insn.addr !680
  %8 = load i32, i32* %7, align 4, !insn.addr !680
  %9 = add i32 %8, %0, !insn.addr !681
  %10 = inttoptr i32 %9 to i32*, !insn.addr !681
  store i32 ptrtoint (%vtable_42763c_type* @global_var_42763c to i32), i32* %10, align 4, !insn.addr !681
  %11 = add i32 %8, 4, !insn.addr !682
  %12 = inttoptr i32 %11 to i32*, !insn.addr !682
  %13 = load i32, i32* %12, align 4, !insn.addr !682
  %14 = add i32 %13, -112, !insn.addr !683
  %15 = add i32 %0, -4, !insn.addr !684
  %16 = add i32 %15, %13, !insn.addr !684
  %17 = inttoptr i32 %16 to i32*, !insn.addr !684
  store i32 %14, i32* %17, align 4, !insn.addr !684
  %18 = call i32 @function_402a60(i32 0), !insn.addr !685
  %19 = or i32 %arg2, 1, !insn.addr !686
  %20 = call i32 @function_408420(i32 %arg1, i32 %19, i32 %arg3), !insn.addr !687
  %21 = icmp eq i32 %20, 0, !insn.addr !688
  %22 = icmp eq i1 %21, false, !insn.addr !689
  br i1 %22, label %dec_label_pc_402b3c, label %dec_label_pc_402b28, !insn.addr !689

dec_label_pc_402b28:                              ; preds = %dec_label_pc_402abe
  %23 = add i32 %0, 20, !insn.addr !690
  %24 = inttoptr i32 %23 to i32*, !insn.addr !690
  %25 = load i32, i32* %24, align 4, !insn.addr !690
  %26 = add i32 %25, %0, !insn.addr !690
  %27 = call i32 @"?setstate@?$basic_ios@DU?$char_traits@D@std@@@std@@QAEXH_N@Z"(i32 %26, i1 false), !insn.addr !691
  br label %dec_label_pc_402b3c, !insn.addr !691

dec_label_pc_402b3c:                              ; preds = %dec_label_pc_402b28, %dec_label_pc_402abe
  ret i32 %0, !insn.addr !692
}

declare i32 @"??0?$basic_ios@DU?$char_traits@D@std@@@std@@IAE@XZ"() local_unnamed_addr

define i32 @"??0?$basic_ostream@DU?$char_traits@D@std@@@std@@QAE@PAV?$basic_streambuf@DU?$char_traits@D@std@@@1@_N@Z.55"(i32 %arg1, i32 %arg2, i32 %arg3, i32 %arg4, i32 %arg5) local_unnamed_addr {
dec_label_pc_402b70:
  %0 = icmp eq i32 %arg4, 0, !insn.addr !693
  br i1 %0, label %dec_label_pc_402b9e, label %dec_label_pc_402b86, !insn.addr !694

dec_label_pc_402b86:                              ; preds = %dec_label_pc_402b70
  %1 = inttoptr i32 %arg1 to i32*, !insn.addr !695
  store i32 ptrtoint (i32* @global_var_4275b0 to i32), i32* %1, align 4, !insn.addr !695
  %2 = call i32 @"??0?$basic_ios@DU?$char_traits@D@std@@@std@@IAE@XZ"(), !insn.addr !696
  br label %dec_label_pc_402b9e, !insn.addr !697

dec_label_pc_402b9e:                              ; preds = %dec_label_pc_402b86, %dec_label_pc_402b70
  %3 = add i32 %arg1, 4, !insn.addr !698
  %4 = inttoptr i32 %3 to i32*, !insn.addr !698
  %5 = load i32, i32* %4, align 4, !insn.addr !698
  %6 = add i32 %5, %arg1, !insn.addr !699
  %7 = inttoptr i32 %6 to i32*, !insn.addr !699
  store i32 ptrtoint (%vtable_4275ac_type* @global_var_4275ac to i32), i32* %7, align 4, !insn.addr !699
  %8 = load i32, i32* %4, align 4, !insn.addr !700
  %9 = add i32 %8, -24, !insn.addr !701
  %10 = add i32 %8, -20, !insn.addr !702
  %11 = inttoptr i32 %10 to i32*, !insn.addr !702
  %12 = load i32, i32* %11, align 4, !insn.addr !702
  %13 = add i32 %arg1, -4, !insn.addr !703
  %14 = add i32 %13, %12, !insn.addr !703
  %15 = inttoptr i32 %14 to i32*, !insn.addr !703
  store i32 %9, i32* %15, align 4, !insn.addr !703
  %16 = add i32 %arg1, 8, !insn.addr !704
  %17 = inttoptr i32 %16 to i32*, !insn.addr !704
  store i32 0, i32* %17, align 4, !insn.addr !704
  %18 = add i32 %arg1, 12, !insn.addr !705
  %19 = inttoptr i32 %18 to i32*, !insn.addr !705
  store i32 0, i32* %19, align 4, !insn.addr !705
  %20 = load i32, i32* %4, align 4, !insn.addr !706
  %21 = add i32 %20, %arg1, !insn.addr !706
  %22 = inttoptr i32 %21 to i32*, !insn.addr !707
  %23 = and i32 %arg2, 1
  %24 = icmp ne i32 %23, 0, !insn.addr !707
  %25 = call i32 @"?init@?$basic_ios@DU?$char_traits@D@std@@@std@@IAEXPAV?$basic_streambuf@DU?$char_traits@D@std@@@2@_N@Z"(i32* %22, i1 %24), !insn.addr !707
  ret i32 %arg1, !insn.addr !708
}

declare i32 @"??0?$basic_streambuf@DU?$char_traits@D@std@@@std@@IAE@XZ"() local_unnamed_addr

define i32 @function_402c60(i32 %arg1) local_unnamed_addr {
dec_label_pc_402c60:
  %0 = call i32 @__decompiler_undefined_function_0()
  %1 = call i32 @"??1?$_String_val@U?$_Simple_types@D@std@@@std@@QAE@XZ.25"(), !insn.addr !709
  %2 = inttoptr i32 %1 to i8**, !insn.addr !710
  %3 = call i8** @"??$forward@AAPAD@std@@YAAAPADAAPAD@Z"(i8** %2), !insn.addr !711
  %4 = inttoptr i32 %0 to i32*, !insn.addr !712
  %5 = call i32 @"??$?0U?$_Wrap_alloc@V?$allocator@D@std@@@std@@X@?$_String_alloc@U?$_String_base_types@DV?$allocator@D@std@@@std@@@std@@QAE@$$QAU?$_Wrap_alloc@V?$allocator@D@std@@@1@@Z"(i32* %4), !insn.addr !712
  call void @"?_Tidy@?$basic_string@DU?$char_traits@D@std@@V?$allocator@D@2@@std@@QAEX_NI@Z"(i32* %4, i1 false, i32 0), !insn.addr !713
  %6 = inttoptr i32 %arg1 to i8**, !insn.addr !714
  %7 = call i8** @"??$forward@AAPAD@std@@YAAAPADAAPAD@Z"(i8** %6), !insn.addr !714
  %8 = ptrtoint i8** %7 to i32, !insn.addr !714
  %9 = call i32 @function_4046a0(i32 %8), !insn.addr !715
  ret i32 %0, !insn.addr !716
}

define i32 @function_402cb0(i32 %arg1) local_unnamed_addr {
dec_label_pc_402cb0:
  %0 = call i32 @__decompiler_undefined_function_0()
  %1 = call i32 @"??1?$_String_val@U?$_Simple_types@D@std@@@std@@QAE@XZ.25"(), !insn.addr !717
  %2 = call i32 @"?select_on_container_copy_construction@?$_Wrap_alloc@V?$allocator@D@std@@@std@@QBE?AU12@U_Nil@2@@Z"(i32 %1), !insn.addr !718
  %3 = inttoptr i32 %0 to i32*, !insn.addr !719
  %4 = call i32 @"??$?0U?$_Wrap_alloc@V?$allocator@D@std@@@std@@X@?$_String_alloc@U?$_String_base_types@DV?$allocator@D@std@@@std@@@std@@QAE@$$QAU?$_Wrap_alloc@V?$allocator@D@std@@@1@@Z"(i32* %3), !insn.addr !719
  call void @"?_Tidy@?$basic_string@DU?$char_traits@D@std@@V?$allocator@D@2@@std@@QAEX_NI@Z"(i32* %3, i1 false, i32 0), !insn.addr !720
  %5 = inttoptr i32 %arg1 to i32*, !insn.addr !721
  %6 = call i32* @"?assign@?$basic_string@DU?$char_traits@D@std@@V?$allocator@D@2@@std@@QAEAAV12@ABV12@II@Z"(i32* %3, i32* %5, i32 0, i32 -1), !insn.addr !721
  ret i32 %0, !insn.addr !722
}

define i32 @function_402d10(i32 %arg1, i32 %arg2) local_unnamed_addr {
dec_label_pc_402d10:
  %0 = call i32 @__decompiler_undefined_function_0()
  %1 = call i32* @"?_Get_second@?$_Compressed_pair@U?$_Wrap_alloc@V?$allocator@D@std@@@std@@V?$_String_val@U?$_Simple_types@D@std@@@2@$00@std@@QAEAAV?$_String_val@U?$_Simple_types@D@std@@@2@XZ"(), !insn.addr !723
  %2 = ptrtoint i32* %1 to i32, !insn.addr !723
  %3 = call i32 @function_402940(i32 %2), !insn.addr !724
  %4 = inttoptr i32 %0 to i32*, !insn.addr !725
  call void @"?_Tidy@?$basic_string@DU?$char_traits@D@std@@V?$allocator@D@2@@std@@QAEX_NI@Z"(i32* %4, i1 false, i32 0), !insn.addr !725
  %5 = trunc i32 %arg1 to i8, !insn.addr !726
  %6 = call i32 @"?assign@?$basic_string@DU?$char_traits@D@std@@V?$allocator@D@2@@std@@QAEAAV12@ID@Z"(i32 %0, i8 %5), !insn.addr !726
  ret i32 %0, !insn.addr !727
}

define i32 @function_402d50(i32 %arg1) local_unnamed_addr {
dec_label_pc_402d50:
  %0 = call i32 @__decompiler_undefined_function_0()
  %1 = inttoptr i32 %0 to i8*, !insn.addr !728
  %2 = call i32* @"?_Get_second@?$_Compressed_pair@U?$_Wrap_alloc@V?$allocator@D@std@@@std@@V?$_String_val@U?$_Simple_types@D@std@@@2@$00@std@@QAEAAV?$_String_val@U?$_Simple_types@D@std@@@2@XZ"(), !insn.addr !729
  %3 = ptrtoint i32* %2 to i32, !insn.addr !729
  %4 = call i32 @function_402940(i32 %3), !insn.addr !730
  %5 = inttoptr i32 %0 to i32*
  call void @"?_Tidy@?$basic_string@DU?$char_traits@D@std@@V?$allocator@D@2@@std@@QAEX_NI@Z"(i32* %5, i1 false, i32 0), !insn.addr !731
  %6 = call i32 @"?assign@?$basic_string@DU?$char_traits@D@std@@V?$allocator@D@2@@std@@QAEAAV12@PBD@Z"(i8* %1), !insn.addr !732
  ret i32 %0, !insn.addr !733
}

define i32 @function_402d90() local_unnamed_addr {
dec_label_pc_402d90:
  %0 = call i32 @__decompiler_undefined_function_0()
  %1 = call i32* @"?_Get_second@?$_Compressed_pair@U?$_Wrap_alloc@V?$allocator@D@std@@@std@@V?$_String_val@U?$_Simple_types@D@std@@@2@$00@std@@QAEAAV?$_String_val@U?$_Simple_types@D@std@@@2@XZ"(), !insn.addr !734
  %2 = ptrtoint i32* %1 to i32, !insn.addr !734
  %3 = call i32 @function_402940(i32 %2), !insn.addr !735
  %4 = inttoptr i32 %0 to i32*, !insn.addr !736
  call void @"?_Tidy@?$basic_string@DU?$char_traits@D@std@@V?$allocator@D@2@@std@@QAEX_NI@Z"(i32* %4, i1 false, i32 0), !insn.addr !736
  ret i32 %0, !insn.addr !737
}

define i32 @function_402dc0(i32 %arg1, i32 %arg2) local_unnamed_addr {
dec_label_pc_402dc0:
  %0 = call i32 @__decompiler_undefined_function_0()
  %1 = inttoptr i32 %0 to i32*, !insn.addr !738
  %2 = call i32 @"??0__non_rtti_object@std@@QAE@ABV01@@Z"(i32* %1), !insn.addr !738
  store i32 ptrtoint (i32* @global_var_42764c to i32), i32* %1, align 4, !insn.addr !739
  %3 = inttoptr i32 %arg1 to i8**, !insn.addr !740
  call void @"??$destroy@PAD@?$allocator@D@std@@QAEXPAPAD@Z"(i32* %1, i8** %3), !insn.addr !740
  ret i32 %0, !insn.addr !741
}

define i32 @function_402e00(i32 %arg1, i32 %arg2) local_unnamed_addr {
dec_label_pc_402e00:
  %0 = call i32 @__decompiler_undefined_function_0()
  %1 = inttoptr i32 %0 to i32*, !insn.addr !742
  %2 = call i32 @"??0__non_rtti_object@std@@QAE@ABV01@@Z.7"(i32* %1), !insn.addr !742
  store i32 ptrtoint (i32* @global_var_42747c to i32), i32* %1, align 4, !insn.addr !743
  %3 = call i32 @"?_Init@?$ctype@D@std@@IAEXABV_Locinfo@2@@Z"(i32* %1), !insn.addr !744
  ret i32 %0, !insn.addr !745
}

declare i32 @"??0?$fpos@U_Mbstatet@@@std@@QAE@_J@Z"(i64) local_unnamed_addr

define i32 @function_402ec0(i32 %arg1, i32 %arg2) local_unnamed_addr {
dec_label_pc_402ec0:
  %0 = call i32 @__decompiler_undefined_function_0()
  %1 = call i32 @__decompiler_undefined_function_0()
  %2 = inttoptr i32 %1 to i32*, !insn.addr !746
  %3 = inttoptr i32 %arg2 to i32*, !insn.addr !746
  %4 = inttoptr i32 %0 to i32*, !insn.addr !746
  %5 = call i32 @"??0bad_typeid@std@@QAE@ABV01@@Z.56"(i32* %2, i32* %3, i32* %4), !insn.addr !746
  store i32 ptrtoint (i32* @global_var_427678 to i32), i32* %2, align 4, !insn.addr !747
  %6 = inttoptr i32 %arg1 to i8**, !insn.addr !748
  call void @"??$destroy@PAD@?$allocator@D@std@@QAEXPAPAD@Z"(i32* %2, i8** %6), !insn.addr !748
  ret i32 %1, !insn.addr !749
}

define i32 @function_402f00(i32 %arg1, i32 %arg2, i32 %arg3) local_unnamed_addr {
dec_label_pc_402f00:
  %0 = call i32 @__decompiler_undefined_function_0()
  %1 = call i32 @__decompiler_undefined_function_0()
  %2 = inttoptr i32 %1 to i32*, !insn.addr !750
  %3 = inttoptr i32 %arg2 to i32*, !insn.addr !750
  %4 = inttoptr i32 %0 to i32*, !insn.addr !750
  %5 = call i32 @"??0bad_typeid@std@@QAE@ABV01@@Z.56"(i32* %2, i32* %3, i32* %4), !insn.addr !750
  store i32 ptrtoint (%vtable_4276bc_type* @global_var_4276bc to i32), i32* %2, align 4, !insn.addr !751
  %6 = and i32 %arg3, 255, !insn.addr !752
  %7 = call i32 @function_405a50(i32 %arg1, i32 %6), !insn.addr !753
  ret i32 %1, !insn.addr !754
}

define i32 @function_402f40(i32 %arg1) local_unnamed_addr {
dec_label_pc_402f40:
  %0 = call i32 @__decompiler_undefined_function_0()
  %1 = inttoptr i32 %0 to i8*, !insn.addr !755
  store i8 0, i8* %1, align 1, !insn.addr !756
  %2 = add i32 %0, 4, !insn.addr !757
  %3 = inttoptr i32 %2 to i32*, !insn.addr !757
  store i32 %arg1, i32* %3, align 4, !insn.addr !757
  ret i32 %0, !insn.addr !758
}

declare i32 @"??0DNameNode@@IAE@XZ"() local_unnamed_addr

define i32 @function_402fe0(i32 %arg1) local_unnamed_addr {
dec_label_pc_402fe0:
  %esp.0.in.reg2mem = alloca i32*, !insn.addr !759
  %0 = call i32 @__decompiler_undefined_function_0()
  %stack_var_-36 = alloca i32, align 4
  %stack_var_-24 = alloca i32, align 4
  %stack_var_-20 = alloca i32, align 4
  store i32 0, i32* %stack_var_-24, align 4, !insn.addr !760
  %1 = call i32 @"??0_Lockit@std@@QAE@H@Z"(i32 %0), !insn.addr !761
  %2 = call i32 @function_402a10(), !insn.addr !762
  %3 = call i32 @function_402a10(), !insn.addr !763
  %4 = call i32 @"??0?$_Yarn@_W@std@@QAE@XZ"(), !insn.addr !764
  %5 = call i32 @"??0?$_Yarn@_W@std@@QAE@XZ"(), !insn.addr !765
  %6 = call i32 @function_402a10(), !insn.addr !766
  %7 = call i32 @function_402a10(), !insn.addr !767
  %8 = icmp eq i32 %arg1, 0, !insn.addr !768
  %9 = icmp eq i1 %8, false, !insn.addr !769
  store i32* %stack_var_-24, i32** %esp.0.in.reg2mem, !insn.addr !769
  br i1 %9, label %dec_label_pc_403056, label %dec_label_pc_40303b, !insn.addr !769

dec_label_pc_40303b:                              ; preds = %dec_label_pc_402fe0
  %10 = bitcast i32* %stack_var_-20 to i8*, !insn.addr !770
  %11 = call i32 @"??0logic_error@std@@QAE@PBD@Z"(i8* nonnull %10), !insn.addr !770
  %12 = ptrtoint i32* %stack_var_-20 to i32, !insn.addr !771
  store i32 %12, i32* %stack_var_-36, align 4, !insn.addr !771
  %13 = call i32 @"__CxxThrowException@8"(i32* nonnull %stack_var_-20, i32* nonnull @global_var_43107c), !insn.addr !772
  store i32* %stack_var_-36, i32** %esp.0.in.reg2mem, !insn.addr !772
  br label %dec_label_pc_403056, !insn.addr !772

dec_label_pc_403056:                              ; preds = %dec_label_pc_40303b, %dec_label_pc_402fe0
  %esp.0.in.reload = load i32*, i32** %esp.0.in.reg2mem
  %esp.0 = ptrtoint i32* %esp.0.in.reload to i32
  %14 = add i32 %esp.0, -4, !insn.addr !773
  %15 = inttoptr i32 %14 to i32*, !insn.addr !773
  store i32 %arg1, i32* %15, align 4, !insn.addr !773
  %16 = add i32 %esp.0, -8, !insn.addr !774
  %17 = inttoptr i32 %16 to i32*, !insn.addr !774
  %18 = call i32 @"?_Locinfo_ctor@_Locinfo@std@@SAXPAV12@PBD@Z"(i32* nonnull @2, i8* bitcast (i32* @2 to i8*)), !insn.addr !775
  ret i32 %0, !insn.addr !776
}

define i32 @function_403070(i32 %arg1, i32 %arg2) local_unnamed_addr {
dec_label_pc_403070:
  %0 = call i32 @__decompiler_undefined_function_0()
  %1 = inttoptr i32 %0 to i32*, !insn.addr !777
  store i32 %arg1, i32* %1, align 4, !insn.addr !777
  %2 = call i32 @function_408b30(), !insn.addr !778
  %3 = icmp eq i32 %2, 0, !insn.addr !779
  br i1 %3, label %dec_label_pc_4030c5, label %dec_label_pc_40309d, !insn.addr !780

dec_label_pc_40309d:                              ; preds = %dec_label_pc_403070
  %4 = call i32 @function_408b30(), !insn.addr !781
  br label %dec_label_pc_4030c5, !insn.addr !782

dec_label_pc_4030c5:                              ; preds = %dec_label_pc_40309d, %dec_label_pc_403070
  ret i32 %0, !insn.addr !783
}

define i32 @function_4030d0(i32 %arg1, i32 %arg2, i32* %arg3) local_unnamed_addr {
dec_label_pc_4030d0:
  %0 = call i32 @__decompiler_undefined_function_0()
  %1 = ptrtoint i32* %arg3 to i32
  %stack_var_-32 = alloca i32, align 4
  %2 = call i32 @function_402cb0(i32 %1), !insn.addr !784
  %3 = call i32 @function_4062c0(i32* nonnull %stack_var_-32, i32 %arg1, i32 %arg2), !insn.addr !785
  %4 = inttoptr i32 %0 to i32*, !insn.addr !786
  %5 = call i32 @"??0runtime_error@std@@QAE@ABV?$basic_string@DU?$char_traits@D@std@@V?$allocator@D@2@@1@@Z"(i32* %4), !insn.addr !786
  %6 = call i32 @function_4037c0(), !insn.addr !787
  store i32 ptrtoint (%vtable_4274c8_type* @global_var_4274c8 to i32), i32* %4, align 4, !insn.addr !788
  %7 = add i32 %0, 12, !insn.addr !789
  %8 = inttoptr i32 %7 to i32*, !insn.addr !789
  store i32 %arg1, i32* %8, align 4, !insn.addr !789
  %9 = add i32 %0, 16, !insn.addr !790
  %10 = inttoptr i32 %9 to i32*, !insn.addr !790
  store i32 %arg2, i32* %10, align 4, !insn.addr !790
  ret i32 %0, !insn.addr !791
}

declare i32 @"??0bad_alloc@std@@QAE@XZ"() local_unnamed_addr

declare i32 @"??0__non_rtti_object@std@@QAE@ABV01@@Z"(i32*) local_unnamed_addr

declare i32 @"??0__non_rtti_object@std@@QAE@ABV01@@Z.7"(i32*) local_unnamed_addr

define i32 @"??0bad_typeid@std@@QAE@ABV01@@Z.56"(i32* %this, i32* %result, i32* %arg3) local_unnamed_addr {
dec_label_pc_403340:
  %0 = ptrtoint i32* %result to i32
  %1 = ptrtoint i32* %this to i32
  %2 = call i32 @"??0DNameNode@@IAE@XZ"(), !insn.addr !792
  store i32 ptrtoint (%vtable_42743c_type* @global_var_42743c to i32), i32* %this, align 4, !insn.addr !793
  %3 = add i32 %1, 4, !insn.addr !794
  %4 = call i32 @function_405c70(i32 %3, i32 %0), !insn.addr !795
  ret i32 %1, !insn.addr !796
}

define i32 @function_403420(i32 %arg1, i32 %arg2) local_unnamed_addr {
dec_label_pc_403420:
  %0 = call i32 @__decompiler_undefined_function_0()
  %1 = add i32 %arg1, 4, !insn.addr !797
  %2 = inttoptr i32 %1 to i32*, !insn.addr !797
  %3 = load i32, i32* %2, align 4, !insn.addr !797
  %4 = add i32 %0, 4, !insn.addr !798
  %5 = inttoptr i32 %4 to i32*, !insn.addr !798
  store i32 %3, i32* %5, align 4, !insn.addr !798
  ret i32 %0, !insn.addr !799
}

define i32 @"??0locale@std@@QAE@XZ"() local_unnamed_addr {
dec_label_pc_403450:
  %0 = call i32 @__decompiler_undefined_function_0()
  %1 = call i32 @"?_Init@locale@std@@CAPAV_Locimp@12@_N@Z"(i1 true), !insn.addr !800
  %2 = add i32 %0, 4, !insn.addr !801
  %3 = inttoptr i32 %2 to i32*, !insn.addr !801
  store i32 %1, i32* %3, align 4, !insn.addr !801
  ret i32 %0, !insn.addr !802
}

declare i32 @"??0runtime_error@std@@QAE@ABV?$basic_string@DU?$char_traits@D@std@@V?$allocator@D@2@@1@@Z"(i32*) local_unnamed_addr

declare i32 @"??0logic_error@std@@QAE@PBD@Z"(i8*) local_unnamed_addr

define i32 @function_403500(i32 %arg1, i32 %arg2) local_unnamed_addr {
dec_label_pc_403500:
  %0 = call i32 @__decompiler_undefined_function_0()
  %1 = call i32 @__decompiler_undefined_function_0()
  %2 = call i32 @function_403070(i32 %arg1, i32 %0), !insn.addr !803
  %3 = and i32 %arg2, 255, !insn.addr !804
  %4 = call i32 @function_405d10(i32 %3), !insn.addr !805
  %5 = trunc i32 %4 to i8, !insn.addr !806
  %6 = add i32 %1, 4, !insn.addr !806
  %7 = inttoptr i32 %6 to i8*, !insn.addr !806
  store i8 %5, i8* %7, align 1, !insn.addr !806
  ret i32 %1, !insn.addr !807
}

define i32 @function_403540(i32 %arg1) local_unnamed_addr {
dec_label_pc_403540:
  %0 = call i32 @__decompiler_undefined_function_0()
  %1 = call i32 @__decompiler_undefined_function_0()
  %2 = call i32 @function_403070(i32 %arg1, i32 %0), !insn.addr !808
  %3 = call i32 @"?good@ios_base@std@@QBE_NXZ"(), !insn.addr !809
  %4 = and i32 %3, 255, !insn.addr !810
  %5 = icmp eq i32 %4, 0, !insn.addr !811
  br i1 %5, label %dec_label_pc_4035ae, label %dec_label_pc_40356a, !insn.addr !812

dec_label_pc_40356a:                              ; preds = %dec_label_pc_403540
  %6 = call i32 @function_409530(), !insn.addr !813
  %7 = icmp eq i32 %6, 0, !insn.addr !814
  br i1 %7, label %dec_label_pc_4035ae, label %dec_label_pc_40357e, !insn.addr !815

dec_label_pc_40357e:                              ; preds = %dec_label_pc_40356a
  %8 = call i32 @function_409530(), !insn.addr !816
  %9 = icmp eq i32 %8, %arg1, !insn.addr !817
  br i1 %9, label %dec_label_pc_4035ae, label %dec_label_pc_403595, !insn.addr !818

dec_label_pc_403595:                              ; preds = %dec_label_pc_40357e
  %10 = call i32 @function_409530(), !insn.addr !819
  %11 = call i32 @function_407e40(), !insn.addr !820
  br label %dec_label_pc_4035ae, !insn.addr !820

dec_label_pc_4035ae:                              ; preds = %dec_label_pc_403595, %dec_label_pc_40357e, %dec_label_pc_40356a, %dec_label_pc_403540
  %12 = call i32 @"?good@ios_base@std@@QBE_NXZ"(), !insn.addr !821
  %13 = trunc i32 %12 to i8, !insn.addr !822
  %14 = add i32 %1, 4, !insn.addr !822
  %15 = inttoptr i32 %14 to i8*, !insn.addr !822
  store i8 %13, i8* %15, align 1, !insn.addr !822
  ret i32 %1, !insn.addr !823
}

define i32 @"??0system_error@std@@QAE@Verror_code@1@PBD@Z"(i32* %this, i32* %result, i32 %arg3, i8* %arg4) local_unnamed_addr {
dec_label_pc_403600:
  %0 = ptrtoint i32* %result to i32
  %1 = ptrtoint i32* %this to i32
  %stack_var_-32 = alloca i32, align 4
  %2 = ptrtoint i8* %arg4 to i32, !insn.addr !824
  %3 = call i32 @function_402d50(i32 %2), !insn.addr !824
  %4 = call i32 @function_4030d0(i32 %0, i32 %arg3, i32* nonnull %stack_var_-32), !insn.addr !825
  %5 = call i32 @function_4037c0(), !insn.addr !826
  store i32 ptrtoint (%vtable_4274d8_type* @global_var_4274d8 to i32), i32* %this, align 4, !insn.addr !827
  ret i32 %1, !insn.addr !828
}

define i32 @function_403650() local_unnamed_addr {
dec_label_pc_403650:
  %0 = call i32 @__decompiler_undefined_function_0()
  %1 = call i32 @function_406640(i32 %0), !insn.addr !829
  ret i32 %1, !insn.addr !830
}

define i32 @"??1?$basic_filebuf@DU?$char_traits@D@std@@@std@@UAE@XZ"() local_unnamed_addr {
dec_label_pc_403670:
  %0 = call i32 @__decompiler_undefined_function_0()
  %1 = inttoptr i32 %0 to i32*, !insn.addr !831
  store i32 ptrtoint (%vtable_4275fc_type* @global_var_4275fc to i32), i32* %1, align 4, !insn.addr !831
  %2 = add i32 %0, 76, !insn.addr !832
  %3 = inttoptr i32 %2 to i32*, !insn.addr !832
  %4 = load i32, i32* %3, align 4, !insn.addr !832
  %5 = icmp eq i32 %4, 0, !insn.addr !832
  br i1 %5, label %dec_label_pc_403691, label %dec_label_pc_403689, !insn.addr !833

dec_label_pc_403689:                              ; preds = %dec_label_pc_403670
  %6 = call i32 @"?_Reset_back@?$basic_filebuf@DU?$char_traits@D@std@@@std@@AAEXXZ"(), !insn.addr !834
  br label %dec_label_pc_403691, !insn.addr !834

dec_label_pc_403691:                              ; preds = %dec_label_pc_403689, %dec_label_pc_403670
  %7 = add i32 %0, 72, !insn.addr !835
  %8 = inttoptr i32 %7 to i8*, !insn.addr !835
  %9 = load i8, i8* %8, align 1, !insn.addr !835
  %10 = icmp eq i8 %9, 0, !insn.addr !836
  br i1 %10, label %dec_label_pc_4036a4, label %dec_label_pc_40369c, !insn.addr !837

dec_label_pc_40369c:                              ; preds = %dec_label_pc_403691
  %11 = call i32 @"?close@?$basic_filebuf@DU?$char_traits@D@std@@@std@@QAEPAV12@XZ"(), !insn.addr !838
  br label %dec_label_pc_4036a4, !insn.addr !838

dec_label_pc_4036a4:                              ; preds = %dec_label_pc_40369c, %dec_label_pc_403691
  %12 = call i32 @"??1?$basic_streambuf@DU?$char_traits@D@std@@@std@@UAE@XZ"(), !insn.addr !839
  ret i32 %12, !insn.addr !840
}

define i32 @function_4036b0(i32 %arg1) local_unnamed_addr {
dec_label_pc_4036b0:
  %0 = call i32 @__decompiler_undefined_function_0()
  %1 = add i32 %0, -112, !insn.addr !841
  %2 = inttoptr i32 %1 to i32*, !insn.addr !841
  %3 = load i32, i32* %2, align 4, !insn.addr !841
  %4 = add i32 %3, 4, !insn.addr !842
  %5 = inttoptr i32 %4 to i32*, !insn.addr !842
  %6 = load i32, i32* %5, align 4, !insn.addr !842
  %7 = add i32 %6, %1, !insn.addr !843
  %8 = inttoptr i32 %7 to i32*, !insn.addr !843
  store i32 ptrtoint (%vtable_42763c_type* @global_var_42763c to i32), i32* %8, align 4, !insn.addr !843
  %9 = load i32, i32* %2, align 4, !insn.addr !844
  %10 = add i32 %9, 4, !insn.addr !845
  %11 = inttoptr i32 %10 to i32*, !insn.addr !845
  %12 = load i32, i32* %11, align 4, !insn.addr !845
  %13 = add i32 %12, -112, !insn.addr !846
  %14 = add i32 %0, -116, !insn.addr !847
  %15 = add i32 %14, %12, !insn.addr !847
  %16 = inttoptr i32 %15 to i32*, !insn.addr !847
  store i32 %13, i32* %16, align 4, !insn.addr !847
  %17 = call i32 @"??1?$basic_filebuf@DU?$char_traits@D@std@@@std@@UAE@XZ"(), !insn.addr !848
  %18 = call i32 @"??1?$basic_istream@DU?$char_traits@D@std@@@std@@UAE@XZ"(), !insn.addr !849
  ret i32 %18, !insn.addr !850
}

declare i32 @"??1?$basic_ios@DU?$char_traits@D@std@@@std@@UAE@XZ"() local_unnamed_addr

declare i32 @"??1?$basic_istream@DU?$char_traits@D@std@@@std@@UAE@XZ"() local_unnamed_addr

declare i32 @"??1?$basic_streambuf@DU?$char_traits@D@std@@@std@@UAE@XZ"() local_unnamed_addr

define i32 @function_4037c0() local_unnamed_addr {
dec_label_pc_4037c0:
  %0 = call i32 @__decompiler_undefined_function_0()
  %1 = inttoptr i32 %0 to i32*, !insn.addr !851
  call void @"?_Tidy@?$basic_string@DU?$char_traits@D@std@@V?$allocator@D@2@@std@@QAEX_NI@Z"(i32* %1, i1 true, i32 0), !insn.addr !851
  ret i32 ptrtoint (i32* @2 to i32), !insn.addr !852
}

define i32 @function_403800(i32 %arg1) local_unnamed_addr {
dec_label_pc_403800:
  %0 = call i32 @__decompiler_undefined_function_0()
  %1 = inttoptr i32 %0 to i32*, !insn.addr !853
  store i32 ptrtoint (i32* @global_var_42747c to i32), i32* %1, align 4, !insn.addr !853
  %2 = call i32 @"?_Tidy@?$ctype@D@std@@IAEXXZ"(), !insn.addr !854
  %3 = call i32 @"??1?$codecvt@DDU_Mbstatet@@@std@@MAE@XZ.11"(), !insn.addr !855
  ret i32 %3, !insn.addr !856
}

define i32 @function_403850(i32 %arg1) local_unnamed_addr {
dec_label_pc_403850:
  %0 = call i32 @__decompiler_undefined_function_0()
  %1 = inttoptr i32 %0 to i32*, !insn.addr !857
  store i32 ptrtoint (%vtable_4276bc_type* @global_var_4276bc to i32), i32* %1, align 4, !insn.addr !857
  %2 = call i32 @"?_Tidy@?$numpunct@D@std@@AAEXXZ"(), !insn.addr !858
  %3 = call i32 @"??1codecvt_base@std@@UAE@XZ.13"(), !insn.addr !859
  ret i32 %3, !insn.addr !860
}

define i32 @function_4038e0(i32 %arg1, i32 %arg2) local_unnamed_addr {
dec_label_pc_4038e0:
  %0 = call i32 @__decompiler_undefined_function_0()
  %1 = inttoptr i32 %0 to i32*, !insn.addr !861
  %2 = call i32 @"?_Locinfo_dtor@_Locinfo@std@@SAXPAV12@@Z"(i32* %1), !insn.addr !861
  %3 = call i32 @function_403650(), !insn.addr !862
  %4 = call i32 @function_403650(), !insn.addr !863
  %5 = call i32 @function_403650(), !insn.addr !864
  %6 = call i32 @function_403650(), !insn.addr !865
  %7 = call i32 @function_403650(), !insn.addr !866
  %8 = call i32 @function_403650(), !insn.addr !867
  %9 = call i32 @"??1_Lockit@std@@QAE@XZ"(), !insn.addr !868
  ret i32 %9, !insn.addr !869
}

define i32 @function_403950() local_unnamed_addr {
dec_label_pc_403950:
  %eax.0.reg2mem = alloca i32, !insn.addr !870
  %0 = call i32 @function_408b30(), !insn.addr !871
  %1 = icmp eq i32 %0, 0, !insn.addr !872
  store i32 0, i32* %eax.0.reg2mem, !insn.addr !873
  br i1 %1, label %dec_label_pc_40399f, label %dec_label_pc_403975, !insn.addr !873

dec_label_pc_403975:                              ; preds = %dec_label_pc_403950
  %2 = call i32 @function_408b30(), !insn.addr !874
  %3 = inttoptr i32 %2 to i32*, !insn.addr !875
  %4 = load i32, i32* %3, align 4, !insn.addr !875
  %5 = add i32 %4, 8, !insn.addr !876
  %6 = inttoptr i32 %5 to i32*, !insn.addr !876
  %7 = load i32, i32* %6, align 4, !insn.addr !876
  store i32 %7, i32* %eax.0.reg2mem, !insn.addr !877
  br label %dec_label_pc_40399f, !insn.addr !877

dec_label_pc_40399f:                              ; preds = %dec_label_pc_403975, %dec_label_pc_403950
  %eax.0.reload = load i32, i32* %eax.0.reg2mem
  ret i32 %eax.0.reload, !insn.addr !878
}

declare i32 @"??1?$codecvt@DDU_Mbstatet@@@std@@MAE@XZ.11"() local_unnamed_addr

declare i32 @"??1codecvt_base@std@@UAE@XZ.13"() local_unnamed_addr

define i32 @"??1ios_base@std@@UAE@XZ"() local_unnamed_addr {
dec_label_pc_403ac0:
  %0 = call i32 @__decompiler_undefined_function_0()
  %1 = inttoptr i32 %0 to i32*, !insn.addr !879
  store i32 ptrtoint (i32* @global_var_427554 to i32), i32* %1, align 4, !insn.addr !879
  %2 = call i32 @"?_Ios_base_dtor@ios_base@std@@CAXPAV12@@Z"(i32* %1), !insn.addr !880
  ret i32 %2, !insn.addr !881
}

define i32 @"??1?$shared_ptr@V__ExceptionPtr@@@std@@QAE@XZ"() local_unnamed_addr {
dec_label_pc_403ae0:
  %eax.0.reg2mem = alloca i32, !insn.addr !882
  %0 = call i32 @__decompiler_undefined_function_0()
  %1 = add i32 %0, 4, !insn.addr !883
  %2 = inttoptr i32 %1 to i32*, !insn.addr !883
  %3 = load i32, i32* %2, align 4, !insn.addr !883
  %4 = icmp eq i32 %3, 0, !insn.addr !883
  br i1 %4, label %dec_label_pc_403b2e, label %dec_label_pc_403af2, !insn.addr !884

dec_label_pc_403af2:                              ; preds = %dec_label_pc_403ae0
  %5 = inttoptr i32 %3 to i32*, !insn.addr !885
  %6 = load i32, i32* %5, align 4, !insn.addr !885
  %7 = add i32 %6, 8, !insn.addr !886
  %8 = inttoptr i32 %7 to i32*, !insn.addr !886
  %9 = load i32, i32* %8, align 4, !insn.addr !886
  %10 = icmp eq i32 %9, 0, !insn.addr !887
  store i32 0, i32* %eax.0.reg2mem, !insn.addr !888
  br i1 %10, label %dec_label_pc_403b2e, label %dec_label_pc_403b14, !insn.addr !888

dec_label_pc_403b14:                              ; preds = %dec_label_pc_403af2
  %11 = inttoptr i32 %9 to i32*, !insn.addr !889
  %12 = load i32, i32* %11, align 4, !insn.addr !889
  store i32 %12, i32* %eax.0.reg2mem, !insn.addr !890
  br label %dec_label_pc_403b2e, !insn.addr !890

dec_label_pc_403b2e:                              ; preds = %dec_label_pc_403af2, %dec_label_pc_403b14, %dec_label_pc_403ae0
  %eax.0.reload = load i32, i32* %eax.0.reg2mem
  ret i32 %eax.0.reload, !insn.addr !891
}

define i32 @function_403b40(i32 %arg1) local_unnamed_addr {
dec_label_pc_403b40:
  %0 = call i32 @function_403950(), !insn.addr !892
  ret i32 %0, !insn.addr !893
}

define i32 @function_403b60() local_unnamed_addr {
dec_label_pc_403b60:
  %0 = call i32 @__decompiler_undefined_function_0()
  %1 = call i32 @__decompiler_undefined_function_0()
  %2 = call i32 @function_409ef0(i32 %1, i32 %0), !insn.addr !894
  %3 = and i32 %2, 255, !insn.addr !895
  %4 = icmp eq i32 %3, 0, !insn.addr !896
  %5 = icmp eq i1 %4, false, !insn.addr !897
  br i1 %5, label %dec_label_pc_403b7d, label %dec_label_pc_403b73, !insn.addr !897

dec_label_pc_403b73:                              ; preds = %dec_label_pc_403b60
  %6 = call i32 @function_4063c0(), !insn.addr !898
  br label %dec_label_pc_403b7d, !insn.addr !898

dec_label_pc_403b7d:                              ; preds = %dec_label_pc_403b73, %dec_label_pc_403b60
  %7 = call i32 @function_403950(), !insn.addr !899
  ret i32 %7, !insn.addr !900
}

define i32* @"??2@YAPAXIPAX@Z"(i32 %arg1, i32* %arg2) local_unnamed_addr {
dec_label_pc_403bb0:
  %0 = inttoptr i32 %arg1 to i32*, !insn.addr !901
  ret i32* %0, !insn.addr !901
}

declare i32 @"??4?$basic_string@DU?$char_traits@D@std@@V?$allocator@D@2@@std@@QAEAAV01@ABV01@@Z"(i32*) local_unnamed_addr

declare i32 @"??4?$ostreambuf_iterator@DU?$char_traits@D@std@@@std@@QAEAAV01@D@Z"(i8) local_unnamed_addr

define i32 @function_403c90(i32 %arg1) local_unnamed_addr {
dec_label_pc_403c90:
  %esp.0.in.reg2mem = alloca i32*, !insn.addr !902
  %stack_var_-28.0.reg2mem = alloca i32, !insn.addr !902
  %0 = call i32 @__decompiler_undefined_function_0()
  %stack_var_-120 = alloca i32, align 4
  %stack_var_-56 = alloca i32, align 4
  %stack_var_-88 = alloca i32, align 4
  %stack_var_-72 = alloca i32, align 4
  %stack_var_-16 = alloca i32, align 4
  %1 = call i32 @__readfsdword(i32 0), !insn.addr !903
  store i32 %1, i32* %stack_var_-16, align 4, !insn.addr !904
  %2 = ptrtoint i32* %stack_var_-16 to i32, !insn.addr !904
  call void @__writefsdword(i32 0, i32 %2), !insn.addr !905
  %3 = call i32 @function_403540(i32 %0), !insn.addr !906
  %4 = call i32 @function_4040b0(), !insn.addr !907
  %5 = and i32 %4, 255, !insn.addr !908
  %6 = icmp eq i32 %5, 0, !insn.addr !909
  store i32 0, i32* %stack_var_-28.0.reg2mem, !insn.addr !910
  store i32* %stack_var_-88, i32** %esp.0.in.reg2mem, !insn.addr !910
  br i1 %6, label %dec_label_pc_403db7, label %dec_label_pc_403cdb, !insn.addr !910

dec_label_pc_403cdb:                              ; preds = %dec_label_pc_403c90
  %7 = call i32 @function_407f50(i32* nonnull %stack_var_-56), !insn.addr !911
  %8 = call i32 @function_402750(i32 %7), !insn.addr !912
  %9 = call i32 @"??1?$shared_ptr@V__ExceptionPtr@@@std@@QAE@XZ"(), !insn.addr !913
  %10 = call i32 @function_407e00(), !insn.addr !914
  %11 = call i32 @function_408b30(), !insn.addr !915
  %12 = call i32 @function_402f40(i32 %11), !insn.addr !916
  %13 = add i32 %12, 4, !insn.addr !917
  %14 = inttoptr i32 %13 to i32*, !insn.addr !917
  %15 = load i32, i32* %14, align 4, !insn.addr !917
  %16 = inttoptr i32 %12 to i32*, !insn.addr !918
  %17 = load i32, i32* %16, align 4, !insn.addr !918
  %18 = ptrtoint i32* %stack_var_-72 to i32, !insn.addr !919
  store i32 %18, i32* %stack_var_-120, align 4, !insn.addr !919
  %19 = call i32 @function_408af0(i32* nonnull %stack_var_-72, i32 %17, i32 %15, i32 ptrtoint (i32* @2 to i32), i32 ptrtoint (i32* @2 to i32), i32 ptrtoint (i32* @2 to i32)), !insn.addr !920
  %20 = call i32 @function_407dc0(), !insn.addr !921
  %21 = and i32 %20, 255, !insn.addr !922
  %22 = icmp eq i32 %21, 0, !insn.addr !923
  %spec.select = select i1 %22, i32 0, i32 4
  store i32 %spec.select, i32* %stack_var_-28.0.reg2mem
  store i32* %stack_var_-120, i32** %esp.0.in.reg2mem
  br label %dec_label_pc_403db7

dec_label_pc_403db7:                              ; preds = %dec_label_pc_403cdb, %dec_label_pc_403c90
  %esp.0.in.reload = load i32*, i32** %esp.0.in.reg2mem
  %stack_var_-28.0.reload = load i32, i32* %stack_var_-28.0.reg2mem
  %esp.0 = ptrtoint i32* %esp.0.in.reload to i32
  %23 = add i32 %esp.0, -4, !insn.addr !924
  %24 = inttoptr i32 %23 to i32*, !insn.addr !924
  store i32 0, i32* %24, align 4, !insn.addr !924
  %25 = add i32 %esp.0, -8, !insn.addr !925
  %26 = inttoptr i32 %25 to i32*, !insn.addr !925
  store i32 %stack_var_-28.0.reload, i32* %26, align 4, !insn.addr !925
  %27 = add i32 %0, 4, !insn.addr !926
  %28 = inttoptr i32 %27 to i32*, !insn.addr !926
  %29 = load i32, i32* %28, align 4, !insn.addr !926
  %30 = add i32 %29, %0, !insn.addr !926
  %31 = call i32 @"?setstate@?$basic_ios@DU?$char_traits@D@std@@@std@@QAEXH_N@Z"(i32 %30, i1 ptrtoint (i32* @2 to i1)), !insn.addr !927
  %32 = call i32 @function_403b60(), !insn.addr !928
  %33 = load i32, i32* %stack_var_-16, align 4, !insn.addr !929
  call void @__writefsdword(i32 0, i32 %33), !insn.addr !930
  ret i32 %0, !insn.addr !931
}

define i32 @function_403e00(i32 %arg1) local_unnamed_addr {
dec_label_pc_403e00:
  %esp.0.in.reg2mem = alloca i32*, !insn.addr !932
  %stack_var_-28.0.reg2mem = alloca i32, !insn.addr !932
  %0 = call i32 @__decompiler_undefined_function_0()
  %stack_var_-120 = alloca i32, align 4
  %stack_var_-56 = alloca i32, align 4
  %stack_var_-88 = alloca i32, align 4
  %stack_var_-72 = alloca i32, align 4
  %stack_var_-16 = alloca i32, align 4
  %1 = call i32 @__readfsdword(i32 0), !insn.addr !933
  store i32 %1, i32* %stack_var_-16, align 4, !insn.addr !934
  %2 = ptrtoint i32* %stack_var_-16 to i32, !insn.addr !934
  call void @__writefsdword(i32 0, i32 %2), !insn.addr !935
  %3 = call i32 @function_403540(i32 %0), !insn.addr !936
  %4 = call i32 @function_4040b0(), !insn.addr !937
  %5 = and i32 %4, 255, !insn.addr !938
  %6 = icmp eq i32 %5, 0, !insn.addr !939
  store i32 0, i32* %stack_var_-28.0.reg2mem, !insn.addr !940
  store i32* %stack_var_-88, i32** %esp.0.in.reg2mem, !insn.addr !940
  br i1 %6, label %dec_label_pc_403f26, label %dec_label_pc_403e4b, !insn.addr !940

dec_label_pc_403e4b:                              ; preds = %dec_label_pc_403e00
  %7 = call i32 @function_407f50(i32* nonnull %stack_var_-56), !insn.addr !941
  %8 = call i32 @function_402750(i32 %7), !insn.addr !942
  %9 = call i32 @"??1?$shared_ptr@V__ExceptionPtr@@@std@@QAE@XZ"(), !insn.addr !943
  %10 = call i32 @function_407e00(), !insn.addr !944
  %11 = call i32 @function_408b30(), !insn.addr !945
  %12 = call i32 @function_402f40(i32 %11), !insn.addr !946
  %13 = add i32 %12, 4, !insn.addr !947
  %14 = inttoptr i32 %13 to i32*, !insn.addr !947
  %15 = load i32, i32* %14, align 4, !insn.addr !947
  %16 = inttoptr i32 %12 to i32*, !insn.addr !948
  %17 = load i32, i32* %16, align 4, !insn.addr !948
  %18 = ptrtoint i32* %stack_var_-72 to i32, !insn.addr !949
  store i32 %18, i32* %stack_var_-120, align 4, !insn.addr !949
  %19 = call i32 @function_408af0(i32* nonnull %stack_var_-72, i32 %17, i32 %15, i32 ptrtoint (i32* @2 to i32), i32 ptrtoint (i32* @2 to i32), i32 ptrtoint (i32* @2 to i32)), !insn.addr !950
  %20 = call i32 @function_407dc0(), !insn.addr !951
  %21 = and i32 %20, 255, !insn.addr !952
  %22 = icmp eq i32 %21, 0, !insn.addr !953
  %spec.select = select i1 %22, i32 0, i32 4
  store i32 %spec.select, i32* %stack_var_-28.0.reg2mem
  store i32* %stack_var_-120, i32** %esp.0.in.reg2mem
  br label %dec_label_pc_403f26

dec_label_pc_403f26:                              ; preds = %dec_label_pc_403e4b, %dec_label_pc_403e00
  %esp.0.in.reload = load i32*, i32** %esp.0.in.reg2mem
  %stack_var_-28.0.reload = load i32, i32* %stack_var_-28.0.reg2mem
  %esp.0 = ptrtoint i32* %esp.0.in.reload to i32
  %23 = add i32 %esp.0, -4, !insn.addr !954
  %24 = inttoptr i32 %23 to i32*, !insn.addr !954
  store i32 0, i32* %24, align 4, !insn.addr !954
  %25 = add i32 %esp.0, -8, !insn.addr !955
  %26 = inttoptr i32 %25 to i32*, !insn.addr !955
  store i32 %stack_var_-28.0.reload, i32* %26, align 4, !insn.addr !955
  %27 = add i32 %0, 4, !insn.addr !956
  %28 = inttoptr i32 %27 to i32*, !insn.addr !956
  %29 = load i32, i32* %28, align 4, !insn.addr !956
  %30 = add i32 %29, %0, !insn.addr !956
  %31 = call i32 @"?setstate@?$basic_ios@DU?$char_traits@D@std@@@std@@QAEXH_N@Z"(i32 %30, i1 ptrtoint (i32* @2 to i1)), !insn.addr !957
  %32 = call i32 @function_403b60(), !insn.addr !958
  %33 = load i32, i32* %stack_var_-16, align 4, !insn.addr !959
  call void @__writefsdword(i32 0, i32 %33), !insn.addr !960
  ret i32 %0, !insn.addr !961
}

define i32 @function_403f60() local_unnamed_addr {
dec_label_pc_403f60:
  %0 = call i32 @__decompiler_undefined_function_0()
  ret i32 %0, !insn.addr !962
}

declare i32 @"??8std@@YA_NABVerror_condition@0@0@Z"(i32*, i32*) local_unnamed_addr

declare i32 @"??A?$basic_string@DU?$char_traits@D@std@@V?$allocator@D@2@@std@@QAEAADI@Z"(i32) local_unnamed_addr

declare i32 @"??B?$fpos@U_Mbstatet@@@std@@QBE_JXZ"() local_unnamed_addr

declare i32 @"??Bid@locale@std@@QAEIXZ"() local_unnamed_addr

define i32 @function_4040b0() local_unnamed_addr {
dec_label_pc_4040b0:
  %0 = call i32 @__decompiler_undefined_function_0()
  %1 = add i32 %0, 4, !insn.addr !963
  %2 = inttoptr i32 %1 to i8*, !insn.addr !963
  %3 = load i8, i8* %2, align 1, !insn.addr !963
  %4 = zext i8 %3 to i32, !insn.addr !963
  %5 = and i32 %0, -256, !insn.addr !963
  %6 = or i32 %5, %4, !insn.addr !963
  ret i32 %6, !insn.addr !964
}

declare i32 @"??C?$shared_ptr@V__ExceptionPtr@@@std@@QBEPAV__ExceptionPtr@@XZ"() local_unnamed_addr

define i32* @"?_Get_second@?$_Compressed_pair@U?$_Wrap_alloc@V?$allocator@D@std@@@std@@V?$_String_val@U?$_Simple_types@D@std@@@2@$00@std@@QAEAAV?$_String_val@U?$_Simple_types@D@std@@@2@XZ"() local_unnamed_addr {
dec_label_pc_4040f0:
  %0 = call i32 @__decompiler_undefined_function_0()
  %1 = inttoptr i32 %0 to i32*, !insn.addr !965
  ret i32* %1, !insn.addr !965
}

define i32 @function_404100() local_unnamed_addr {
dec_label_pc_404100:
  %0 = call i32 @__decompiler_undefined_function_0()
  %1 = call i32 @function_4036b0(i32 %0), !insn.addr !966
  %2 = call i32 @"??1?$basic_ios@DU?$char_traits@D@std@@@std@@UAE@XZ"(), !insn.addr !967
  ret i32 %2, !insn.addr !968
}

declare i32 @"??_D?$basic_istream@DU?$char_traits@D@std@@@std@@QAEXXZ"() local_unnamed_addr

define i32 @function_404151() {
dec_label_pc_404151:
  %0 = call i32 @function_4041a0(i32 ptrtoint (i32* @2 to i32)), !insn.addr !969
  ret i32 %0, !insn.addr !969
}

define i32 @function_404159(i32 %arg1) {
dec_label_pc_404159:
  %0 = call i32 @"??_G?$basic_istream@DU?$char_traits@D@std@@@std@@UAEPAXI@Z"(i32 %arg1), !insn.addr !970
  ret i32 %0, !insn.addr !970
}

declare i32 @"??_G?$basic_filebuf@DU?$char_traits@D@std@@@std@@UAEPAXI@Z"(i32)

define i32 @function_4041a0(i32 %arg1) local_unnamed_addr {
dec_label_pc_4041a0:
  %0 = call i32 @__decompiler_undefined_function_0()
  %1 = call i32 @function_404100(), !insn.addr !971
  %2 = and i32 %arg1, 1, !insn.addr !972
  %3 = icmp eq i32 %2, 0, !insn.addr !972
  %.pre = add i32 %0, -112
  br i1 %3, label %dec_label_pc_4041ce, label %dec_label_pc_4041ba, !insn.addr !973

dec_label_pc_4041ba:                              ; preds = %dec_label_pc_4041a0
  %4 = inttoptr i32 %.pre to i32*, !insn.addr !974
  call void @"??3@YAXPAXI@Z"(i32* %4, i32 184), !insn.addr !974
  br label %dec_label_pc_4041ce, !insn.addr !975

dec_label_pc_4041ce:                              ; preds = %dec_label_pc_4041a0, %dec_label_pc_4041ba
  ret i32 %.pre, !insn.addr !976
}

declare i32 @"??_G?$basic_ios@DU?$char_traits@D@std@@@std@@UAEPAXI@Z"(i32)

declare i32 @"??_G?$basic_istream@DU?$char_traits@D@std@@@std@@UAEPAXI@Z"(i32) local_unnamed_addr

define i32 @function_4042b0(i32 %arg1) local_unnamed_addr {
dec_label_pc_4042b0:
  %0 = call i32 @__decompiler_undefined_function_0()
  %1 = call i32 @__decompiler_undefined_function_0()
  %2 = call i32 @function_403800(i32 %0), !insn.addr !977
  %3 = and i32 %arg1, 1, !insn.addr !978
  %4 = icmp eq i32 %3, 0, !insn.addr !978
  br i1 %4, label %dec_label_pc_4042d5, label %dec_label_pc_4042c7, !insn.addr !979

dec_label_pc_4042c7:                              ; preds = %dec_label_pc_4042b0
  %5 = inttoptr i32 %1 to i32*, !insn.addr !980
  call void @"??3@YAXPAXI@Z"(i32* %5, i32 24), !insn.addr !980
  br label %dec_label_pc_4042d5, !insn.addr !981

dec_label_pc_4042d5:                              ; preds = %dec_label_pc_4042c7, %dec_label_pc_4042b0
  ret i32 %1, !insn.addr !982
}

define i32 @function_404310(i32 %arg1) {
dec_label_pc_404310:
  %0 = call i32 @__decompiler_undefined_function_0()
  %1 = call i32 @__decompiler_undefined_function_0()
  %2 = call i32 @function_403850(i32 %0), !insn.addr !983
  %3 = and i32 %arg1, 1, !insn.addr !984
  %4 = icmp eq i32 %3, 0, !insn.addr !984
  br i1 %4, label %dec_label_pc_404335, label %dec_label_pc_404327, !insn.addr !985

dec_label_pc_404327:                              ; preds = %dec_label_pc_404310
  %5 = inttoptr i32 %1 to i32*, !insn.addr !986
  call void @"??3@YAXPAXI@Z"(i32* %5, i32 24), !insn.addr !986
  br label %dec_label_pc_404335, !insn.addr !987

dec_label_pc_404335:                              ; preds = %dec_label_pc_404327, %dec_label_pc_404310
  ret i32 %1, !insn.addr !988
}

declare i32 @"??_G_Generic_error_category@std@@UAEPAXI@Z.17"(i32)

declare i32 @"??_G_System_error@std@@UAEPAXI@Z"(i32)

declare i32 @"??_G__non_rtti_object@std@@UAEPAXI@Z"(i32)

declare i32 @"??_Gexception@std@@UAEPAXI@Z"(i32)

declare i32 @"??_G?$shared_ptr@V__ExceptionPtr@@@std@@QAEPAXI@Z.20"(i32)

declare i32 @"??_G_System_error@std@@UAEPAXI@Z.21"(i32)

declare i32 @"??_G_System_error@std@@UAEPAXI@Z.23"(i32)

define i32* @"?_Allocate@std@@YAPAXII_N@Z"(i32 %arg1, i32 %arg2, i1 %arg3) local_unnamed_addr {
dec_label_pc_4045e0:
  %storemerge.reg2mem = alloca i32, !insn.addr !989
  %0 = icmp eq i32 %arg1, 0, !insn.addr !990
  %1 = icmp eq i1 %0, false, !insn.addr !991
  store i32 0, i32* %storemerge.reg2mem, !insn.addr !991
  br i1 %1, label %dec_label_pc_4045fb, label %dec_label_pc_404694, !insn.addr !991

dec_label_pc_4045fb:                              ; preds = %dec_label_pc_4045e0
  %2 = udiv i32 -1, %arg2
  %3 = icmp ult i32 %2, %arg1, !insn.addr !992
  %4 = icmp eq i1 %3, false, !insn.addr !993
  br i1 %4, label %dec_label_pc_40460d, label %dec_label_pc_404608, !insn.addr !993

dec_label_pc_404608:                              ; preds = %dec_label_pc_4045fb
  %5 = call i32 @"?_Xbad_alloc@std@@YAXXZ"(), !insn.addr !994
  br label %dec_label_pc_40460d, !insn.addr !994

dec_label_pc_40460d:                              ; preds = %dec_label_pc_404608, %dec_label_pc_4045fb
  %6 = mul i32 %arg2, %arg1, !insn.addr !995
  %.not = icmp ne i1 %arg3, true
  %7 = icmp ult i32 %6, 4096, !insn.addr !996
  %or.cond = or i1 %7, %.not
  br i1 %or.cond, label %dec_label_pc_404677, label %dec_label_pc_404628, !insn.addr !997

dec_label_pc_404628:                              ; preds = %dec_label_pc_40460d
  %8 = icmp ugt i32 %6, -36, !insn.addr !998
  br i1 %8, label %dec_label_pc_404639, label %dec_label_pc_40463e, !insn.addr !999

dec_label_pc_404639:                              ; preds = %dec_label_pc_404628
  %9 = call i32 @"?_Xbad_alloc@std@@YAXXZ"(), !insn.addr !1000
  br label %dec_label_pc_40463e, !insn.addr !1000

dec_label_pc_40463e:                              ; preds = %dec_label_pc_404628, %dec_label_pc_404639
  %10 = add i32 %6, 35, !insn.addr !1001
  %11 = call i32 @"??2@YAPAXI@Z"(i32 %10), !insn.addr !1002
  %12 = icmp eq i32 %11, 0, !insn.addr !1003
  %13 = icmp eq i1 %12, false, !insn.addr !1004
  br i1 %13, label %dec_label_pc_404658, label %dec_label_pc_404653, !insn.addr !1004

dec_label_pc_404653:                              ; preds = %dec_label_pc_40463e
  %14 = call i32 @__invalid_parameter_noinfo_noreturn(), !insn.addr !1005
  br label %dec_label_pc_404658, !insn.addr !1005

dec_label_pc_404658:                              ; preds = %dec_label_pc_404653, %dec_label_pc_40463e
  %15 = add i32 %11, 35, !insn.addr !1006
  %16 = and i32 %15, -32, !insn.addr !1007
  %17 = add i32 %16, -4, !insn.addr !1008
  %18 = inttoptr i32 %17 to i32*, !insn.addr !1008
  store i32 %11, i32* %18, align 4, !insn.addr !1008
  store i32 %16, i32* %storemerge.reg2mem, !insn.addr !1009
  br label %dec_label_pc_404694, !insn.addr !1009

dec_label_pc_404677:                              ; preds = %dec_label_pc_40460d
  %19 = call i32 @"??2@YAPAXI@Z"(i32 %6), !insn.addr !1010
  %20 = icmp eq i32 %19, 0, !insn.addr !1011
  %21 = icmp eq i1 %20, false, !insn.addr !1012
  store i32 %19, i32* %storemerge.reg2mem, !insn.addr !1012
  br i1 %21, label %dec_label_pc_404694, label %dec_label_pc_40468c, !insn.addr !1012

dec_label_pc_40468c:                              ; preds = %dec_label_pc_404677
  %22 = call i32 @__invalid_parameter_noinfo_noreturn(), !insn.addr !1013
  store i32 %19, i32* %storemerge.reg2mem, !insn.addr !1013
  br label %dec_label_pc_404694, !insn.addr !1013

dec_label_pc_404694:                              ; preds = %dec_label_pc_404658, %dec_label_pc_404677, %dec_label_pc_40468c, %dec_label_pc_4045e0
  %storemerge.reload = load i32, i32* %storemerge.reg2mem
  %23 = inttoptr i32 %storemerge.reload to i32*, !insn.addr !1014
  ret i32* %23, !insn.addr !1014
}

define i32 @function_4046a0(i32 %arg1) local_unnamed_addr {
dec_label_pc_4046a0:
  %esp.0.in.reg2mem = alloca i32*, !insn.addr !1015
  %stack_var_-20 = alloca i32, align 4
  %stack_var_-12 = alloca i32, align 4
  %0 = call i32 @"?_Myres@?$_String_alloc@U?$_String_base_types@DV?$allocator@D@std@@@std@@@std@@QAEAAIXZ"(), !insn.addr !1016
  %1 = inttoptr i32 %0 to i32*, !insn.addr !1017
  %2 = load i32, i32* %1, align 4, !insn.addr !1017
  %3 = icmp ult i32 %2, 16, !insn.addr !1017
  %4 = icmp eq i1 %3, false, !insn.addr !1018
  br i1 %4, label %dec_label_pc_4046df, label %dec_label_pc_4046b5, !insn.addr !1018

dec_label_pc_4046b5:                              ; preds = %dec_label_pc_4046a0
  %5 = call i32 @"?_Mysize@?$_String_alloc@U?$_String_base_types@DV?$allocator@D@std@@@std@@@std@@QAEAAIXZ"(), !insn.addr !1019
  %6 = call i32 @"??1?$_Compressed_pair@U?$_Wrap_alloc@V?$allocator@D@std@@@std@@V?$_String_val@U?$_Simple_types@D@std@@@2@$00@std@@QAE@XZ.24"(), !insn.addr !1020
  store i32 %6, i32* %stack_var_-20, align 4, !insn.addr !1021
  %7 = call i32 @"??1?$_Compressed_pair@U?$_Wrap_alloc@V?$allocator@D@std@@@std@@V?$_String_val@U?$_Simple_types@D@std@@@2@$00@std@@QAE@XZ.24"(), !insn.addr !1022
  %8 = inttoptr i32 %7 to i8*, !insn.addr !1023
  %9 = call i32 @"?copy@?$char_traits@D@std@@SAPADPADPBDI@Z.29"(i8* %8, i8* bitcast (i32* @2 to i8*), i32 ptrtoint (i32* @2 to i32)), !insn.addr !1024
  store i32* %stack_var_-12, i32** %esp.0.in.reg2mem, !insn.addr !1025
  br label %dec_label_pc_40470e, !insn.addr !1025

dec_label_pc_4046df:                              ; preds = %dec_label_pc_4046a0
  %10 = call i32 @"??1?$_Compressed_pair@U?$_Wrap_alloc@V?$allocator@D@std@@@std@@V?$_String_val@U?$_Simple_types@D@std@@@2@$00@std@@QAE@XZ.24"(), !insn.addr !1026
  %11 = call i32 @"??1?$_Compressed_pair@U?$_Wrap_alloc@V?$allocator@D@std@@@std@@V?$_String_val@U?$_Simple_types@D@std@@@2@$00@std@@QAE@XZ.24"(), !insn.addr !1027
  store i32 %11, i32* %stack_var_-20, align 4, !insn.addr !1028
  %12 = call i32 @"??1?$_String_val@U?$_Simple_types@D@std@@@std@@QAE@XZ.25"(), !insn.addr !1029
  %13 = inttoptr i32 %12 to i8**, !insn.addr !1030
  %14 = call i32 @"??$construct@PADAAPAD@?$_Wrap_alloc@V?$allocator@D@std@@@std@@QAEXPAPADAAPAD@Z"(i8** %13, i8** bitcast (i32* @2 to i8**)), !insn.addr !1030
  %15 = call i32 @"??1?$_Compressed_pair@U?$_Wrap_alloc@V?$allocator@D@std@@@std@@V?$_String_val@U?$_Simple_types@D@std@@@2@$00@std@@QAE@XZ.24"(), !insn.addr !1031
  %16 = inttoptr i32 %15 to i32*, !insn.addr !1032
  store i32 0, i32* %16, align 4, !insn.addr !1032
  store i32* %stack_var_-20, i32** %esp.0.in.reg2mem, !insn.addr !1032
  br label %dec_label_pc_40470e, !insn.addr !1032

dec_label_pc_40470e:                              ; preds = %dec_label_pc_4046df, %dec_label_pc_4046b5
  %esp.0.in.reload = load i32*, i32** %esp.0.in.reg2mem
  %esp.0 = ptrtoint i32* %esp.0.in.reload to i32
  %17 = call i32 @"?_Mysize@?$_String_alloc@U?$_String_base_types@DV?$allocator@D@std@@@std@@@std@@QAEAAIXZ"(), !insn.addr !1033
  %18 = call i32 @"?_Mysize@?$_String_alloc@U?$_String_base_types@DV?$allocator@D@std@@@std@@@std@@QAEAAIXZ"(), !insn.addr !1034
  %19 = inttoptr i32 %17 to i32*, !insn.addr !1035
  %20 = load i32, i32* %19, align 4, !insn.addr !1035
  %21 = inttoptr i32 %18 to i32*, !insn.addr !1036
  store i32 %20, i32* %21, align 4, !insn.addr !1036
  %22 = call i32 @"?_Myres@?$_String_alloc@U?$_String_base_types@DV?$allocator@D@std@@@std@@@std@@QAEAAIXZ"(), !insn.addr !1037
  %23 = call i32 @"?_Myres@?$_String_alloc@U?$_String_base_types@DV?$allocator@D@std@@@std@@@std@@QAEAAIXZ"(), !insn.addr !1038
  %24 = inttoptr i32 %22 to i32*, !insn.addr !1039
  %25 = load i32, i32* %24, align 4, !insn.addr !1039
  %26 = inttoptr i32 %23 to i32*, !insn.addr !1040
  store i32 %25, i32* %26, align 4, !insn.addr !1040
  %27 = add i32 %esp.0, -4, !insn.addr !1041
  %28 = inttoptr i32 %27 to i32*, !insn.addr !1041
  store i32 0, i32* %28, align 4, !insn.addr !1041
  %29 = add i32 %esp.0, -8, !insn.addr !1042
  %30 = inttoptr i32 %29 to i32*, !insn.addr !1042
  store i32 0, i32* %30, align 4, !insn.addr !1042
  %31 = inttoptr i32 %arg1 to i32*, !insn.addr !1043
  call void @"?_Tidy@?$basic_string@DU?$char_traits@D@std@@V?$allocator@D@2@@std@@QAEX_NI@Z"(i32* %31, i1 ptrtoint (i32* @2 to i1), i32 ptrtoint (i32* @2 to i32)), !insn.addr !1043
  ret i32 ptrtoint (i32* @2 to i32), !insn.addr !1044
}

declare i32 @"??1?$_Compressed_pair@U?$_Wrap_alloc@V?$allocator@D@std@@@std@@V?$_String_val@U?$_Simple_types@D@std@@@2@$00@std@@QAE@XZ.24"() local_unnamed_addr

declare i32 @"?_Chassign@?$basic_string@DU?$char_traits@D@std@@V?$allocator@D@2@@std@@QAEXIID@Z"(i32, i32, i8) local_unnamed_addr

define void @"?_Copy@?$basic_string@DU?$char_traits@D@std@@V?$allocator@D@2@@std@@QAEXII@Z"(i32 %arg1, i32 %arg2) local_unnamed_addr {
dec_label_pc_4047c0:
  %stack_var_-16 = alloca i32, align 4
  %0 = call i32 @__readfsdword(i32 0), !insn.addr !1045
  store i32 %0, i32* %stack_var_-16, align 4, !insn.addr !1046
  %1 = ptrtoint i32* %stack_var_-16 to i32, !insn.addr !1046
  call void @__writefsdword(i32 0, i32 %1), !insn.addr !1047
  %2 = or i32 %arg2, 15, !insn.addr !1048
  %3 = call i32 @"?max_size@?$basic_string@DU?$char_traits@D@std@@V?$allocator@D@2@@std@@QBEIXZ"(), !insn.addr !1049
  %4 = icmp ult i32 %3, %2, !insn.addr !1050
  %5 = icmp eq i1 %4, false, !insn.addr !1051
  br i1 %5, label %dec_label_pc_404803, label %dec_label_pc_40486f, !insn.addr !1051

dec_label_pc_404803:                              ; preds = %dec_label_pc_4047c0
  %6 = call i32 @"?_Myres@?$_String_alloc@U?$_String_base_types@DV?$allocator@D@std@@@std@@@std@@QAEAAIXZ"(), !insn.addr !1052
  %7 = inttoptr i32 %6 to i32*, !insn.addr !1053
  %8 = load i32, i32* %7, align 4, !insn.addr !1053
  %9 = udiv i32 %8, 2, !insn.addr !1054
  %10 = udiv i32 %2, 3
  %11 = icmp ugt i32 %9, %10
  br i1 %11, label %dec_label_pc_404821, label %dec_label_pc_40486f, !insn.addr !1055

dec_label_pc_404821:                              ; preds = %dec_label_pc_404803
  %12 = call i32 @"?_Myres@?$_String_alloc@U?$_String_base_types@DV?$allocator@D@std@@@std@@@std@@QAEAAIXZ"(), !insn.addr !1056
  %13 = call i32 @"?max_size@?$basic_string@DU?$char_traits@D@std@@V?$allocator@D@2@@std@@QBEIXZ"(), !insn.addr !1057
  %14 = call i32 @"?_Myres@?$_String_alloc@U?$_String_base_types@DV?$allocator@D@std@@@std@@@std@@QAEAAIXZ"(), !insn.addr !1058
  %15 = inttoptr i32 %14 to i32*, !insn.addr !1059
  %16 = load i32, i32* %15, align 4, !insn.addr !1059
  %17 = udiv i32 %16, 2, !insn.addr !1060
  %18 = sub i32 %13, %17, !insn.addr !1061
  %19 = inttoptr i32 %12 to i32*, !insn.addr !1062
  %20 = load i32, i32* %19, align 4, !insn.addr !1062
  %21 = icmp ugt i32 %20, %18
  br i1 %21, label %dec_label_pc_404864, label %dec_label_pc_404847, !insn.addr !1063

dec_label_pc_404847:                              ; preds = %dec_label_pc_404821
  %22 = call i32 @"?_Myres@?$_String_alloc@U?$_String_base_types@DV?$allocator@D@std@@@std@@@std@@QAEAAIXZ"(), !insn.addr !1064
  %23 = call i32 @"?_Myres@?$_String_alloc@U?$_String_base_types@DV?$allocator@D@std@@@std@@@std@@QAEAAIXZ"(), !insn.addr !1065
  br label %dec_label_pc_40486f, !insn.addr !1066

dec_label_pc_404864:                              ; preds = %dec_label_pc_404821
  %24 = call i32 @"?max_size@?$basic_string@DU?$char_traits@D@std@@V?$allocator@D@2@@std@@QBEIXZ"(), !insn.addr !1067
  br label %dec_label_pc_40486f, !insn.addr !1068

dec_label_pc_40486f:                              ; preds = %dec_label_pc_4047c0, %dec_label_pc_404803, %dec_label_pc_404864, %dec_label_pc_404847
  %25 = call i32 @"??1?$_String_val@U?$_Simple_types@D@std@@@std@@QAE@XZ.25"(), !insn.addr !1069
  %26 = call i32 @"?allocate@?$_Wrap_alloc@V?$allocator@D@std@@@std@@QAEPADI@Z"(i32 %25), !insn.addr !1070
  %27 = call i32 @function_4048ea(i32 %26), !insn.addr !1071
  ret void, !insn.addr !1071
}

define i32 @function_404891() local_unnamed_addr {
dec_label_pc_404891:
  %0 = call i32 @__decompiler_undefined_function_0()
  %stack_var_0 = alloca i32, align 4
  %1 = add i32 %0, -16, !insn.addr !1072
  %2 = inttoptr i32 %1 to i32*, !insn.addr !1072
  %3 = ptrtoint i32* %stack_var_0 to i32, !insn.addr !1072
  store i32 %3, i32* %2, align 4, !insn.addr !1072
  %4 = add i32 %0, 8, !insn.addr !1073
  %5 = inttoptr i32 %4 to i32*, !insn.addr !1073
  %6 = load i32, i32* %5, align 4, !insn.addr !1073
  %7 = add i32 %0, -24, !insn.addr !1074
  %8 = inttoptr i32 %7 to i32*, !insn.addr !1074
  store i32 %6, i32* %8, align 4, !insn.addr !1074
  %9 = add i32 %0, -4, !insn.addr !1075
  %10 = inttoptr i32 %9 to i8*, !insn.addr !1075
  store i8 2, i8* %10, align 1, !insn.addr !1075
  %11 = call i32 @"??1?$_String_val@U?$_Simple_types@D@std@@@std@@QAE@XZ.25"(), !insn.addr !1076
  %12 = call i32 @"?allocate@?$_Wrap_alloc@V?$allocator@D@std@@@std@@QAEPADI@Z"(i32 %11), !insn.addr !1077
  %13 = add i32 %0, -28, !insn.addr !1078
  %14 = inttoptr i32 %13 to i32*, !insn.addr !1078
  store i32 %12, i32* %14, align 4, !insn.addr !1078
  %15 = call i32 @function_4048d4(), !insn.addr !1079
  ret i32 %15, !insn.addr !1079
}

define i32 @function_4048b9() local_unnamed_addr {
dec_label_pc_4048b9:
  %0 = call i32 @__decompiler_undefined_function_0()
  %1 = add i32 %0, -20, !insn.addr !1080
  %2 = inttoptr i32 %1 to i32*, !insn.addr !1080
  %3 = load i32, i32* %2, align 4, !insn.addr !1080
  %4 = inttoptr i32 %3 to i32*, !insn.addr !1081
  call void @"?_Tidy@?$basic_string@DU?$char_traits@D@std@@V?$allocator@D@2@@std@@QAEX_NI@Z"(i32* %4, i1 true, i32 0), !insn.addr !1081
  %5 = call i32 @"__CxxThrowException@8"(i32* null, i32* null), !insn.addr !1082
  ret i32 4212957, !insn.addr !1083
}

define i32 @function_4048d4() local_unnamed_addr {
dec_label_pc_4048d4:
  %0 = call i32 @__decompiler_undefined_function_0()
  %1 = add i32 %0, -4, !insn.addr !1084
  %2 = inttoptr i32 %1 to i32*, !insn.addr !1084
  store i32 1, i32* %2, align 4, !insn.addr !1084
  %3 = call i32 @function_4048e4(), !insn.addr !1085
  ret i32 %3, !insn.addr !1085
}

define i32 @function_4048dd() local_unnamed_addr {
dec_label_pc_4048dd:
  %0 = call i32 @__decompiler_undefined_function_0()
  %1 = call i32 @__decompiler_undefined_function_0()
  %2 = add i32 %0, -4, !insn.addr !1086
  %3 = inttoptr i32 %2 to i32*, !insn.addr !1086
  store i32 1, i32* %3, align 4, !insn.addr !1086
  ret i32 %1, !insn.addr !1086
}

define i32 @function_4048e4() local_unnamed_addr {
dec_label_pc_4048e4:
  ret i32 4212979, !insn.addr !1087
}

define i32 @function_4048ea(i32 %arg1) local_unnamed_addr {
dec_label_pc_4048ea:
  %0 = call i32 @__decompiler_undefined_function_0()
  %1 = add i32 %0, -4, !insn.addr !1088
  %2 = inttoptr i32 %1 to i32*, !insn.addr !1088
  store i32 -1, i32* %2, align 4, !insn.addr !1088
  %3 = call i32 @function_4048fa(), !insn.addr !1089
  ret i32 %3, !insn.addr !1089
}

define i32 @function_4048f3() local_unnamed_addr {
dec_label_pc_4048f3:
  %0 = call i32 @__decompiler_undefined_function_0()
  %1 = call i32 @__decompiler_undefined_function_0()
  %2 = add i32 %0, -4, !insn.addr !1090
  %3 = inttoptr i32 %2 to i32*, !insn.addr !1090
  store i32 -1, i32* %3, align 4, !insn.addr !1090
  ret i32 %1, !insn.addr !1090
}

define i32 @function_4048fa() local_unnamed_addr {
dec_label_pc_4048fa:
  %0 = call i32 @__decompiler_undefined_function_0()
  %1 = add i32 %0, 12, !insn.addr !1091
  %2 = inttoptr i32 %1 to i32*, !insn.addr !1091
  %3 = load i32, i32* %2, align 4, !insn.addr !1091
  %4 = icmp eq i32 %3, 0, !insn.addr !1091
  br i1 %4, label %dec_label_pc_404919, label %dec_label_pc_404900, !insn.addr !1092

dec_label_pc_404900:                              ; preds = %dec_label_pc_4048fa
  %5 = call i32 @"?_Myptr@?$_String_alloc@U?$_String_base_types@DV?$allocator@D@std@@@std@@@std@@QAEPADXZ"(), !insn.addr !1093
  %6 = inttoptr i32 %5 to i8*, !insn.addr !1094
  %7 = add i32 %0, -28, !insn.addr !1095
  %8 = inttoptr i32 %7 to i32*, !insn.addr !1095
  %9 = load i32, i32* %8, align 4, !insn.addr !1095
  %10 = inttoptr i32 %9 to i8*, !insn.addr !1096
  %11 = call i32 @"?copy@?$char_traits@D@std@@SAPADPADPBDI@Z"(i8* %10, i8* %6, i32 ptrtoint (i32* @2 to i32)), !insn.addr !1097
  br label %dec_label_pc_404919, !insn.addr !1098

dec_label_pc_404919:                              ; preds = %dec_label_pc_404900, %dec_label_pc_4048fa
  %12 = add i32 %0, -20, !insn.addr !1099
  %13 = inttoptr i32 %12 to i32*, !insn.addr !1099
  %14 = load i32, i32* %13, align 4, !insn.addr !1099
  %15 = inttoptr i32 %14 to i32*, !insn.addr !1100
  call void @"?_Tidy@?$basic_string@DU?$char_traits@D@std@@V?$allocator@D@2@@std@@QAEX_NI@Z"(i32* %15, i1 true, i32 0), !insn.addr !1100
  %16 = call i32 @"??1?$_Compressed_pair@U?$_Wrap_alloc@V?$allocator@D@std@@@std@@V?$_String_val@U?$_Simple_types@D@std@@@2@$00@std@@QAE@XZ.24"(), !insn.addr !1101
  %17 = call i32 @"??1?$_String_val@U?$_Simple_types@D@std@@@std@@QAE@XZ.25"(), !insn.addr !1102
  %18 = inttoptr i32 %17 to i8**, !insn.addr !1103
  %19 = call i32 @"??$construct@PADAAPAD@?$_Wrap_alloc@V?$allocator@D@std@@@std@@QAEXPAPADAAPAD@Z"(i8** %18, i8** bitcast (i32* @2 to i8**)), !insn.addr !1103
  %20 = call i32 @"?_Myres@?$_String_alloc@U?$_String_base_types@DV?$allocator@D@std@@@std@@@std@@QAEAAIXZ"(), !insn.addr !1104
  %21 = add i32 %0, -24, !insn.addr !1105
  %22 = inttoptr i32 %21 to i32*, !insn.addr !1105
  %23 = load i32, i32* %22, align 4, !insn.addr !1105
  %24 = inttoptr i32 %20 to i32*, !insn.addr !1106
  store i32 %23, i32* %24, align 4, !insn.addr !1106
  %25 = load i32, i32* %2, align 4, !insn.addr !1107
  %26 = load i32, i32* %13, align 4, !insn.addr !1108
  %27 = inttoptr i32 %26 to i32*, !insn.addr !1109
  call void @"?_Eos@?$basic_string@DU?$char_traits@D@std@@V?$allocator@D@2@@std@@QAEXI@Z"(i32* %27, i32 %25), !insn.addr !1109
  %28 = add i32 %0, -12, !insn.addr !1110
  %29 = inttoptr i32 %28 to i32*, !insn.addr !1110
  %30 = load i32, i32* %29, align 4, !insn.addr !1110
  call void @__writefsdword(i32 0, i32 %30), !insn.addr !1111
  ret i32 ptrtoint (i32* @2 to i32), !insn.addr !1112
}

define void @"?_Deallocate@std@@YAXPAXII@Z"(i32* %arg1, i32 %arg2, i32 %arg3) local_unnamed_addr {
dec_label_pc_4049a0:
  %stack_var_4.0.reg2mem = alloca i32, !insn.addr !1113
  %0 = udiv i32 -1, %arg3
  %1 = icmp ult i32 %0, %arg2
  br i1 %1, label %dec_label_pc_4049b3, label %dec_label_pc_4049b8, !insn.addr !1114

dec_label_pc_4049b3:                              ; preds = %dec_label_pc_4049a0
  %2 = call i32 @__invalid_parameter_noinfo_noreturn(), !insn.addr !1115
  br label %dec_label_pc_4049b8, !insn.addr !1115

dec_label_pc_4049b8:                              ; preds = %dec_label_pc_4049a0, %dec_label_pc_4049b3
  %3 = ptrtoint i32* %arg1 to i32
  %4 = mul i32 %arg3, %arg2, !insn.addr !1116
  %5 = icmp ult i32 %4, 4096, !insn.addr !1117
  store i32 %3, i32* %stack_var_4.0.reg2mem, !insn.addr !1118
  br i1 %5, label %dec_label_pc_404a22, label %dec_label_pc_4049cb, !insn.addr !1118

dec_label_pc_4049cb:                              ; preds = %dec_label_pc_4049b8
  %6 = and i32 %3, 31, !insn.addr !1119
  %7 = icmp eq i32 %6, 0, !insn.addr !1119
  br i1 %7, label %dec_label_pc_4049de, label %dec_label_pc_4049d9, !insn.addr !1120

dec_label_pc_4049d9:                              ; preds = %dec_label_pc_4049cb
  %8 = call i32 @__invalid_parameter_noinfo_noreturn(), !insn.addr !1121
  br label %dec_label_pc_4049de, !insn.addr !1121

dec_label_pc_4049de:                              ; preds = %dec_label_pc_4049d9, %dec_label_pc_4049cb
  %9 = add i32 %3, -4, !insn.addr !1122
  %10 = inttoptr i32 %9 to i32*, !insn.addr !1123
  %11 = load i32, i32* %10, align 4, !insn.addr !1123
  %12 = icmp ult i32 %11, %3, !insn.addr !1124
  br i1 %12, label %dec_label_pc_4049fc, label %dec_label_pc_4049f7, !insn.addr !1125

dec_label_pc_4049f7:                              ; preds = %dec_label_pc_4049de
  %13 = call i32 @__invalid_parameter_noinfo_noreturn(), !insn.addr !1126
  br label %dec_label_pc_4049fc, !insn.addr !1126

dec_label_pc_4049fc:                              ; preds = %dec_label_pc_4049f7, %dec_label_pc_4049de
  %14 = sub i32 %3, %11, !insn.addr !1127
  %15 = icmp ult i32 %14, 4, !insn.addr !1128
  %16 = icmp eq i1 %15, false, !insn.addr !1129
  br i1 %16, label %dec_label_pc_404a0c, label %dec_label_pc_404a07, !insn.addr !1129

dec_label_pc_404a07:                              ; preds = %dec_label_pc_4049fc
  %17 = call i32 @__invalid_parameter_noinfo_noreturn(), !insn.addr !1130
  br label %dec_label_pc_404a0c, !insn.addr !1130

dec_label_pc_404a0c:                              ; preds = %dec_label_pc_404a07, %dec_label_pc_4049fc
  %18 = icmp ult i32 %14, 36
  store i32 %11, i32* %stack_var_4.0.reg2mem, !insn.addr !1131
  br i1 %18, label %dec_label_pc_404a22, label %dec_label_pc_404a17, !insn.addr !1131

dec_label_pc_404a17:                              ; preds = %dec_label_pc_404a0c
  %19 = call i32 @__invalid_parameter_noinfo_noreturn(), !insn.addr !1132
  store i32 %11, i32* %stack_var_4.0.reg2mem, !insn.addr !1132
  br label %dec_label_pc_404a22, !insn.addr !1132

dec_label_pc_404a22:                              ; preds = %dec_label_pc_404a0c, %dec_label_pc_404a17, %dec_label_pc_4049b8
  %stack_var_4.0.reload = load i32, i32* %stack_var_4.0.reg2mem
  %20 = inttoptr i32 %stack_var_4.0.reload to i32*, !insn.addr !1133
  call void @function_40b2b6(i32* %20), !insn.addr !1133
  ret void, !insn.addr !1134
}

declare i32 @"?_Decref@facet@locale@std@@UAEPAV_Facet_base@3@XZ"()

define i1 @"?_Endwrite@?$basic_filebuf@DU?$char_traits@D@std@@@std@@IAE_NXZ"() local_unnamed_addr {
dec_label_pc_404a70:
  %esp.2.reg2mem = alloca i32, !insn.addr !1135
  %esp.1.reg2mem = alloca i32, !insn.addr !1135
  %esp.0.reg2mem = alloca i32, !insn.addr !1135
  %0 = call i32 @__decompiler_undefined_function_0()
  %1 = call i32 @__decompiler_undefined_function_0()
  %stack_var_-52 = alloca i32, align 4
  %stack_var_-48 = alloca i32, align 4
  %stack_var_-44 = alloca i32, align 4
  %stack_var_-40 = alloca i32, align 4
  %stack_var_-32 = alloca i32, align 4
  %stack_var_-92 = alloca i32, align 4
  %stack_var_-28 = alloca i32, align 4
  %stack_var_-24 = alloca i32, align 4
  %stack_var_-76 = alloca i32, align 4
  %2 = add i32 %1, 56, !insn.addr !1136
  %3 = inttoptr i32 %2 to i32*, !insn.addr !1136
  %4 = load i32, i32* %3, align 4, !insn.addr !1136
  %5 = icmp eq i32 %4, 0, !insn.addr !1136
  br i1 %5, label %dec_label_pc_404a8e, label %dec_label_pc_404a83, !insn.addr !1137

dec_label_pc_404a83:                              ; preds = %dec_label_pc_404a70
  %6 = add i32 %1, 61, !insn.addr !1138
  %7 = inttoptr i32 %6 to i8*, !insn.addr !1138
  %8 = load i8, i8* %7, align 1, !insn.addr !1138
  %9 = icmp eq i8 %8, 0, !insn.addr !1139
  %10 = icmp eq i1 %9, false, !insn.addr !1140
  br i1 %10, label %dec_label_pc_404a9a, label %dec_label_pc_404a8e, !insn.addr !1140

dec_label_pc_404a8e:                              ; preds = %dec_label_pc_404a83, %dec_label_pc_404a70
  %11 = call i32 @function_404c13(i32 %0), !insn.addr !1141
  %12 = and i32 %11, 1
  %13 = icmp ne i32 %12, 0, !insn.addr !1141
  ret i1 %13, !insn.addr !1141

dec_label_pc_404a9a:                              ; preds = %dec_label_pc_404a83
  %14 = call i32 @"?eof@?$char_traits@D@std@@SAHXZ"(), !insn.addr !1142
  %15 = add i32 %1, 12, !insn.addr !1143
  %16 = inttoptr i32 %15 to i32*, !insn.addr !1143
  %17 = load i32, i32* %16, align 4, !insn.addr !1143
  store i32 %17, i32* %stack_var_-24, align 4, !insn.addr !1144
  %18 = call i32 @"?eof@?$char_traits@D@std@@SAHXZ"(), !insn.addr !1145
  store i32 %18, i32* %stack_var_-28, align 4, !insn.addr !1146
  %19 = ptrtoint i32* %stack_var_-28 to i32, !insn.addr !1147
  store i32 %19, i32* %stack_var_-92, align 4, !insn.addr !1147
  %20 = call i32 @"?eq_int_type@?$char_traits@D@std@@SA_NABH0@Z"(i32* nonnull %stack_var_-28, i32* nonnull %stack_var_-24), !insn.addr !1148
  %21 = and i32 %20, 255, !insn.addr !1149
  %22 = icmp eq i32 %21, 0, !insn.addr !1150
  br i1 %22, label %dec_label_pc_404add, label %dec_label_pc_404ad6, !insn.addr !1151

dec_label_pc_404ad6:                              ; preds = %dec_label_pc_404a9a
  %23 = call i32 @function_404c13(i32 ptrtoint (i32* @2 to i32)), !insn.addr !1152
  %24 = and i32 %23, 1
  %25 = icmp ne i32 %24, 0, !insn.addr !1152
  ret i1 %25, !insn.addr !1152

dec_label_pc_404add:                              ; preds = %dec_label_pc_404a9a
  store i32 8, i32* %stack_var_-92, align 4, !insn.addr !1153
  %26 = ptrtoint i32* %stack_var_-92 to i32, !insn.addr !1153
  %27 = call i32 @function_402d10(i32 8, i32 0), !insn.addr !1154
  %28 = ptrtoint i32* %stack_var_-32 to i32, !insn.addr !1155
  %29 = ptrtoint i32* %stack_var_-40 to i32, !insn.addr !1156
  %30 = ptrtoint i32* %stack_var_-44 to i32
  %31 = add i32 %1, 64
  %32 = ptrtoint i32* %stack_var_-48 to i32
  %33 = add i32 %1, 76
  %34 = inttoptr i32 %33 to i32*
  %35 = ptrtoint i32* %stack_var_-52 to i32
  store i32 %26, i32* %esp.0.reg2mem, !insn.addr !1154
  br label %dec_label_pc_404ae9, !insn.addr !1154

dec_label_pc_404ae9:                              ; preds = %dec_label_pc_404c06, %dec_label_pc_404add
  %esp.0.reload = load i32, i32* %esp.0.reg2mem
  %36 = add i32 %esp.0.reload, -4, !insn.addr !1155
  %37 = inttoptr i32 %36 to i32*, !insn.addr !1155
  store i32 %28, i32* %37, align 4, !insn.addr !1155
  %38 = add i32 %esp.0.reload, -8, !insn.addr !1156
  %39 = inttoptr i32 %38 to i32*, !insn.addr !1156
  store i32 %29, i32* %39, align 4, !insn.addr !1156
  %40 = call i32 @function_406db0(i32 ptrtoint (i32* @2 to i32)), !insn.addr !1157
  %41 = call i32 @"??C?$shared_ptr@V__ExceptionPtr@@@std@@QBEPAV__ExceptionPtr@@XZ"(), !insn.addr !1158
  %42 = call i32 @"?size@?$basic_string@DU?$char_traits@D@std@@V?$allocator@D@2@@std@@QBEIXZ"(), !insn.addr !1159
  %43 = add i32 %42, %41, !insn.addr !1160
  %44 = add i32 %esp.0.reload, -12, !insn.addr !1161
  %45 = inttoptr i32 %44 to i32*, !insn.addr !1161
  store i32 %43, i32* %45, align 4, !insn.addr !1161
  %46 = add i32 %esp.0.reload, -16, !insn.addr !1162
  %47 = inttoptr i32 %46 to i32*, !insn.addr !1162
  store i32 %30, i32* %47, align 4, !insn.addr !1162
  %48 = call i32 @function_406db0(i32 ptrtoint (i32* @2 to i32)), !insn.addr !1163
  %49 = call i32 @"??C?$shared_ptr@V__ExceptionPtr@@@std@@QBEPAV__ExceptionPtr@@XZ"(), !insn.addr !1164
  %50 = add i32 %esp.0.reload, -20, !insn.addr !1165
  %51 = inttoptr i32 %50 to i32*, !insn.addr !1165
  store i32 %49, i32* %51, align 4, !insn.addr !1165
  %52 = add i32 %esp.0.reload, -24, !insn.addr !1166
  %53 = inttoptr i32 %52 to i32*, !insn.addr !1166
  store i32 %31, i32* %53, align 4, !insn.addr !1166
  %54 = call i32 @function_409920(i32 ptrtoint (i32* @2 to i32), i32 ptrtoint (i32* @2 to i32), i32 ptrtoint (i32* @2 to i32), i32 ptrtoint (i32* @2 to i32)), !insn.addr !1167
  switch i32 %54, label %dec_label_pc_404b42 [
    i32 0, label %dec_label_pc_404b51
    i32 1, label %dec_label_pc_404b58
  ]

dec_label_pc_404b42:                              ; preds = %dec_label_pc_404ae9
  %55 = call i32 @function_4037c0()
  %56 = call i32 @function_404c13(i32 ptrtoint (i32* @2 to i32))
  %57 = and i32 %56, 1
  %58 = icmp ne i32 %57, 0
  ret i1 %58, !insn.addr !1168

dec_label_pc_404b51:                              ; preds = %dec_label_pc_404ae9
  store i8 0, i8* %7, align 1, !insn.addr !1169
  br label %dec_label_pc_404b58, !insn.addr !1169

dec_label_pc_404b58:                              ; preds = %dec_label_pc_404ae9, %dec_label_pc_404b51
  %59 = add i32 %esp.0.reload, -28, !insn.addr !1170
  %60 = inttoptr i32 %59 to i32*, !insn.addr !1170
  store i32 %32, i32* %60, align 4, !insn.addr !1170
  %61 = call i32 @function_406db0(i32 %54), !insn.addr !1171
  %62 = call i32 @"??C?$shared_ptr@V__ExceptionPtr@@@std@@QBEPAV__ExceptionPtr@@XZ"(), !insn.addr !1172
  %63 = load i32, i32* %stack_var_-32, align 4, !insn.addr !1173
  %64 = sub i32 %63, %62, !insn.addr !1174
  %65 = icmp eq i32 %64, 0, !insn.addr !1174
  store i32 %59, i32* %esp.1.reg2mem, !insn.addr !1175
  br i1 %65, label %dec_label_pc_404bb4, label %dec_label_pc_404b75, !insn.addr !1175

dec_label_pc_404b75:                              ; preds = %dec_label_pc_404b58
  %66 = load i32, i32* %34, align 4, !insn.addr !1176
  %67 = add i32 %esp.0.reload, -32, !insn.addr !1177
  %68 = inttoptr i32 %67 to i32*, !insn.addr !1177
  store i32 %66, i32* %68, align 4, !insn.addr !1177
  %69 = add i32 %esp.0.reload, -36, !insn.addr !1178
  %70 = inttoptr i32 %69 to i32*, !insn.addr !1178
  store i32 %64, i32* %70, align 4, !insn.addr !1178
  %71 = add i32 %esp.0.reload, -40, !insn.addr !1179
  %72 = inttoptr i32 %71 to i32*, !insn.addr !1179
  store i32 1, i32* %72, align 4, !insn.addr !1179
  %73 = add i32 %esp.0.reload, -44, !insn.addr !1180
  %74 = inttoptr i32 %73 to i32*, !insn.addr !1180
  store i32 %35, i32* %74, align 4, !insn.addr !1180
  %75 = call i32 @function_406db0(i32 %64), !insn.addr !1181
  %76 = call i32 @"??C?$shared_ptr@V__ExceptionPtr@@@std@@QBEPAV__ExceptionPtr@@XZ"(), !insn.addr !1182
  %77 = add i32 %esp.0.reload, -48, !insn.addr !1183
  %78 = inttoptr i32 %77 to i32*, !insn.addr !1183
  store i32 %76, i32* %78, align 4, !insn.addr !1183
  %79 = call i32 @_fwrite(i32* nonnull @2, i32 ptrtoint (i32* @2 to i32), i32 ptrtoint (i32* @2 to i32), %_IO_FILE* bitcast (i32* @2 to %_IO_FILE*)), !insn.addr !1184
  %80 = icmp eq i32 %64, %79, !insn.addr !1185
  store i32 %67, i32* %esp.1.reg2mem, !insn.addr !1186
  br i1 %80, label %dec_label_pc_404bb4, label %dec_label_pc_404ba3, !insn.addr !1186

dec_label_pc_404ba3:                              ; preds = %dec_label_pc_404b75
  %81 = call i32 @function_4037c0(), !insn.addr !1187
  %82 = call i32 @function_404c13(i32 ptrtoint (i32* @2 to i32)), !insn.addr !1188
  %83 = and i32 %82, 1
  %84 = icmp ne i32 %83, 0, !insn.addr !1188
  ret i1 %84, !insn.addr !1188

dec_label_pc_404bb4:                              ; preds = %dec_label_pc_404b75, %dec_label_pc_404b58
  %85 = load i8, i8* %7, align 1, !insn.addr !1189
  %86 = icmp eq i8 %85, 0, !insn.addr !1190
  %87 = icmp eq i1 %86, false, !insn.addr !1191
  br i1 %87, label %dec_label_pc_404bd0, label %dec_label_pc_404bbf, !insn.addr !1191

dec_label_pc_404bbf:                              ; preds = %dec_label_pc_404bb4
  %88 = call i32 @function_4037c0(), !insn.addr !1192
  %89 = call i32 @function_404c13(i32 ptrtoint (i32* @2 to i32)), !insn.addr !1193
  %90 = and i32 %89, 1
  %91 = icmp ne i32 %90, 0, !insn.addr !1193
  ret i1 %91, !insn.addr !1193

dec_label_pc_404bd0:                              ; preds = %dec_label_pc_404bb4
  %esp.1.reload = load i32, i32* %esp.1.reg2mem
  %92 = icmp eq i1 %65, false, !insn.addr !1194
  store i32 %esp.1.reload, i32* %esp.2.reg2mem, !insn.addr !1194
  br i1 %92, label %dec_label_pc_404c06, label %dec_label_pc_404bd6, !insn.addr !1194

dec_label_pc_404bd6:                              ; preds = %dec_label_pc_404bd0
  %93 = add i32 %esp.1.reload, -4, !insn.addr !1195
  %94 = inttoptr i32 %93 to i32*, !insn.addr !1195
  store i32 0, i32* %94, align 4, !insn.addr !1195
  %95 = add i32 %esp.1.reload, -8, !insn.addr !1196
  %96 = inttoptr i32 %95 to i32*, !insn.addr !1196
  store i32 8, i32* %96, align 4, !insn.addr !1196
  %97 = call i32* @"?append@?$basic_string@DU?$char_traits@D@std@@V?$allocator@D@2@@std@@QAEAAV12@ID@Z"(i32* nonnull %stack_var_-76, i32 ptrtoint (i32* @2 to i32), i8 ptrtoint (i32* @2 to i8)), !insn.addr !1197
  store i32 %95, i32* %esp.2.reg2mem, !insn.addr !1197
  br label %dec_label_pc_404c06, !insn.addr !1197

dec_label_pc_404c06:                              ; preds = %dec_label_pc_404bd0, %dec_label_pc_404bd6
  %esp.2.reload = load i32, i32* %esp.2.reg2mem
  store i32 %esp.2.reload, i32* %esp.0.reg2mem, !insn.addr !1198
  br label %dec_label_pc_404ae9, !insn.addr !1198
}

define i32 @function_404c0b() local_unnamed_addr {
dec_label_pc_404c0b:
  %0 = call i32 @function_4037c0(), !insn.addr !1199
  ret i32 %0, !insn.addr !1199
}

define i32 @function_404c13(i32 %arg1) local_unnamed_addr {
dec_label_pc_404c13:
  %0 = call i32 @__decompiler_undefined_function_0()
  ret i32 %0, !insn.addr !1200
}

define void @"?_Eos@?$basic_string@DU?$char_traits@D@std@@V?$allocator@D@2@@std@@QAEXI@Z"(i32* %result, i32 %arg2) local_unnamed_addr {
dec_label_pc_404c20:
  %0 = call i32 @"?_Mysize@?$_String_alloc@U?$_String_base_types@DV?$allocator@D@std@@@std@@@std@@QAEAAIXZ"(), !insn.addr !1201
  %1 = inttoptr i32 %0 to i32*, !insn.addr !1202
  store i32 %arg2, i32* %1, align 4, !insn.addr !1202
  %2 = call i32 @"?_Myptr@?$_String_alloc@U?$_String_base_types@DV?$allocator@D@std@@@std@@@std@@QAEPADXZ"(), !insn.addr !1203
  %3 = add i32 %2, %arg2, !insn.addr !1204
  %4 = inttoptr i32 %3 to i8*, !insn.addr !1205
  call void @"?assign@?$char_traits@D@std@@SAXAADABD@Z"(i8* %4, i8* bitcast (i32* @2 to i8*)), !insn.addr !1206
  ret void, !insn.addr !1207
}

declare i32 @"?_Ffmt@?$num_put@DV?$ostreambuf_iterator@DU?$char_traits@D@std@@@std@@@std@@ABAPADPADDH@Z"(i8*, i8, i32) local_unnamed_addr

define i32 @function_404da0(i32 %arg1, i32 %arg2, i32 %arg3, i32 %arg4, i32 %arg5, i32 %arg6, i32 %arg7, i32 %arg8) local_unnamed_addr {
dec_label_pc_404da0:
  %esp.2.reg2mem = alloca i32, !insn.addr !1208
  %stack_var_16.0.in.in.in.reg2mem = alloca i32, !insn.addr !1208
  %stack_var_-24.0.reg2mem = alloca i32, !insn.addr !1208
  %.pre-phi.reg2mem = alloca i32, !insn.addr !1208
  %storemerge.reg2mem = alloca i32, !insn.addr !1208
  %edx.0.reg2mem = alloca i32, !insn.addr !1208
  %esp.1.lcssa.reg2mem = alloca i32, !insn.addr !1208
  %stack_var_-32.016.reg2mem = alloca i32, !insn.addr !1208
  %stack_var_-16.017.reg2mem = alloca i8*, !insn.addr !1208
  %esp.118.reg2mem = alloca i32, !insn.addr !1208
  %.reg2mem46 = alloca i32, !insn.addr !1208
  %.reg2mem44 = alloca i8, !insn.addr !1208
  %esp.0.in.reg2mem = alloca i32*, !insn.addr !1208
  %stack_var_-8.0.reg2mem = alloca i32, !insn.addr !1208
  %.reg2mem = alloca i32, !insn.addr !1208
  %storemerge7.reg2mem = alloca i32, !insn.addr !1208
  %stack_var_-160 = alloca i32, align 4
  %stack_var_-152 = alloca i32, align 4
  %stack_var_-144 = alloca i32, align 4
  %stack_var_-136 = alloca i32, align 4
  %stack_var_-128 = alloca i32, align 4
  %stack_var_-120 = alloca i32, align 4
  %stack_var_-228 = alloca i32, align 4
  %stack_var_-224 = alloca i32, align 4
  %stack_var_-112 = alloca i32, align 4
  %stack_var_-96 = alloca i32, align 4
  %stack_var_-104 = alloca i32, align 4
  %stack_var_-184 = alloca i32, align 4
  %stack_var_-4 = alloca i32, align 4
  %0 = icmp eq i32 %arg8, 0, !insn.addr !1209
  br i1 %0, label %dec_label_pc_404dcf, label %dec_label_pc_404db0, !insn.addr !1210

dec_label_pc_404db0:                              ; preds = %dec_label_pc_404da0
  %1 = inttoptr i32 %arg7 to i8*, !insn.addr !1211
  %2 = load i8, i8* %1, align 1, !insn.addr !1211
  %3 = icmp ne i8 %2, 43, !insn.addr !1212
  %4 = icmp eq i8 %2, 45, !insn.addr !1213
  %5 = icmp eq i1 %4, false, !insn.addr !1214
  %or.cond12 = icmp eq i1 %3, %5
  store i32 1, i32* %storemerge7.reg2mem, !insn.addr !1215
  br i1 %or.cond12, label %dec_label_pc_404dcf, label %dec_label_pc_404dd6, !insn.addr !1215

dec_label_pc_404dcf:                              ; preds = %dec_label_pc_404db0, %dec_label_pc_404da0
  store i32 0, i32* %storemerge7.reg2mem, !insn.addr !1216
  br label %dec_label_pc_404dd6, !insn.addr !1216

dec_label_pc_404dd6:                              ; preds = %dec_label_pc_404db0, %dec_label_pc_404dcf
  %storemerge7.reload = load i32, i32* %storemerge7.reg2mem
  %6 = call i32 @function_407e20(), !insn.addr !1217
  %7 = and i32 %6, 12288, !insn.addr !1218
  %8 = icmp eq i32 %7, 12288, !insn.addr !1219
  store i32 ptrtoint ([3 x i8]* @global_var_4276dc to i32), i32* %.reg2mem, !insn.addr !1220
  store i32 %storemerge7.reload, i32* %stack_var_-8.0.reg2mem, !insn.addr !1220
  br i1 %8, label %dec_label_pc_404df9, label %dec_label_pc_404e40, !insn.addr !1220

dec_label_pc_404df9:                              ; preds = %dec_label_pc_404dd6
  %9 = or i32 %storemerge7.reload, 2, !insn.addr !1221
  %10 = icmp ugt i32 %9, %arg8
  store i32 ptrtoint ([3 x i8]* @global_var_4276e0 to i32), i32* %.reg2mem, !insn.addr !1222
  store i32 %storemerge7.reload, i32* %stack_var_-8.0.reg2mem, !insn.addr !1222
  br i1 %10, label %dec_label_pc_404e40, label %dec_label_pc_404e0b, !insn.addr !1222

dec_label_pc_404e0b:                              ; preds = %dec_label_pc_404df9
  %11 = add i32 %storemerge7.reload, %arg7, !insn.addr !1223
  %12 = inttoptr i32 %11 to i8*, !insn.addr !1224
  %13 = load i8, i8* %12, align 1, !insn.addr !1224
  %14 = icmp eq i8 %13, 48, !insn.addr !1225
  %15 = icmp eq i1 %14, false, !insn.addr !1226
  store i32 ptrtoint ([3 x i8]* @global_var_4276e0 to i32), i32* %.reg2mem, !insn.addr !1226
  store i32 %storemerge7.reload, i32* %stack_var_-8.0.reg2mem, !insn.addr !1226
  br i1 %15, label %dec_label_pc_404e40, label %dec_label_pc_404e19, !insn.addr !1226

dec_label_pc_404e19:                              ; preds = %dec_label_pc_404e0b
  %16 = add i32 %11, 1, !insn.addr !1227
  %17 = inttoptr i32 %16 to i8*, !insn.addr !1227
  %18 = load i8, i8* %17, align 1, !insn.addr !1227
  %19 = icmp ne i8 %18, 120, !insn.addr !1228
  %20 = icmp eq i8 %18, 88, !insn.addr !1229
  %21 = icmp eq i1 %20, false, !insn.addr !1230
  %or.cond14 = icmp eq i1 %19, %21
  %spec.select15 = select i1 %or.cond14, i32 %storemerge7.reload, i32 %9
  store i32 ptrtoint ([3 x i8]* @global_var_4276e0 to i32), i32* %.reg2mem
  store i32 %spec.select15, i32* %stack_var_-8.0.reg2mem
  br label %dec_label_pc_404e40

dec_label_pc_404e40:                              ; preds = %dec_label_pc_404dd6, %dec_label_pc_404e19, %dec_label_pc_404df9, %dec_label_pc_404e0b
  %22 = ptrtoint i32* %stack_var_-4 to i32, !insn.addr !1231
  %stack_var_-8.0.reload = load i32, i32* %stack_var_-8.0.reg2mem
  %.reload = load i32, i32* %.reg2mem
  %23 = inttoptr i32 %arg7 to i8*, !insn.addr !1232
  %.cast = inttoptr i32 %.reload to i8*
  %24 = call i32 @_strcspn(i8* %23, i8* %.cast), !insn.addr !1233
  %25 = call %lconv* @_localeconv(), !insn.addr !1234
  %26 = bitcast %lconv* %25 to i32*, !insn.addr !1235
  %27 = load i32, i32* %26, align 4, !insn.addr !1235
  %28 = inttoptr i32 %27 to i8*, !insn.addr !1236
  %29 = load i8, i8* %28, align 1, !insn.addr !1236
  %30 = add i32 %22, -16, !insn.addr !1237
  %31 = inttoptr i32 %30 to i8*, !insn.addr !1237
  store i8 %29, i8* %31, align 4, !insn.addr !1237
  %32 = call i32 @_strcspn(i8* %23, i8* %31), !insn.addr !1238
  %33 = call i32 @function_407f50(i32* nonnull %stack_var_-104), !insn.addr !1239
  %34 = call i32 @function_402690(i32 %33), !insn.addr !1240
  %35 = call i32 @"??1?$shared_ptr@V__ExceptionPtr@@@std@@QAE@XZ"(), !insn.addr !1241
  %36 = call i32 @function_402d10(i32 %arg8, i32 0), !insn.addr !1242
  %37 = ptrtoint i32* %stack_var_-96 to i32, !insn.addr !1243
  %38 = call i32 @"??A?$basic_string@DU?$char_traits@D@std@@V?$allocator@D@2@@std@@QAEAADI@Z"(i32 %37), !insn.addr !1244
  %39 = add i32 %arg8, %arg7, !insn.addr !1245
  %40 = call i32 @function_4099f0(i32 %arg7, i32 %39, i32 %38), !insn.addr !1246
  %41 = call i32 @function_407f50(i32* nonnull %stack_var_-112), !insn.addr !1247
  %42 = call i32 @function_402810(i32 %41), !insn.addr !1248
  %43 = call i32 @"??1?$shared_ptr@V__ExceptionPtr@@@std@@QAE@XZ"(), !insn.addr !1249
  %44 = ptrtoint i32* %stack_var_-184 to i32, !insn.addr !1250
  store i32 %44, i32* %stack_var_-224, align 4, !insn.addr !1250
  %45 = call i32 @function_407fc0(i32* nonnull %stack_var_-184), !insn.addr !1251
  %46 = call i32 @function_409510(), !insn.addr !1252
  %47 = icmp eq i32 %32, %arg8, !insn.addr !1253
  store i32* %stack_var_-224, i32** %esp.0.in.reg2mem, !insn.addr !1254
  br i1 %47, label %dec_label_pc_404f56, label %dec_label_pc_404f3e, !insn.addr !1254

dec_label_pc_404f3e:                              ; preds = %dec_label_pc_404e40
  %48 = inttoptr i32 %42 to i32*, !insn.addr !1255
  %49 = call i1 @"?always_noconv@codecvt_base@std@@QBE_NXZ"(i32* %48), !insn.addr !1255
  %50 = sext i1 %49 to i8, !insn.addr !1256
  store i32 %32, i32* %stack_var_-228, align 4, !insn.addr !1257
  %51 = call i32 @"??A?$basic_string@DU?$char_traits@D@std@@V?$allocator@D@2@@std@@QAEAADI@Z"(i32 %37), !insn.addr !1258
  %52 = inttoptr i32 %51 to i8*, !insn.addr !1259
  store i8 %50, i8* %52, align 1, !insn.addr !1259
  store i32* %stack_var_-228, i32** %esp.0.in.reg2mem, !insn.addr !1259
  br label %dec_label_pc_404f56, !insn.addr !1259

dec_label_pc_404f56:                              ; preds = %dec_label_pc_404f3e, %dec_label_pc_404e40
  %esp.0.in.reload = load i32*, i32** %esp.0.in.reg2mem
  %esp.0 = ptrtoint i32* %esp.0.in.reload to i32
  %53 = add i32 %esp.0, -4, !insn.addr !1260
  %54 = inttoptr i32 %53 to i32*, !insn.addr !1260
  store i32 0, i32* %54, align 4, !insn.addr !1260
  %55 = call i32 @"??A?$basic_string@DU?$char_traits@D@std@@V?$allocator@D@2@@std@@QAEAADI@Z"(i32 %44), !insn.addr !1261
  %56 = inttoptr i32 %55 to i8*, !insn.addr !1262
  %57 = load i8, i8* %56, align 1, !insn.addr !1263
  %58 = icmp eq i8 %57, 127, !insn.addr !1264
  store i32 %53, i32* %esp.1.lcssa.reg2mem, !insn.addr !1265
  store i32 %55, i32* %edx.0.reg2mem, !insn.addr !1265
  br i1 %58, label %dec_label_pc_404fe6, label %dec_label_pc_404f8d.lr.ph, !insn.addr !1265

dec_label_pc_404f8d.lr.ph:                        ; preds = %dec_label_pc_404f56
  %59 = icmp eq i1 %47, false, !insn.addr !1266
  %storemerge6 = select i1 %59, i32 %32, i32 %24
  %60 = and i32 %46, 255
  store i8 %57, i8* %.reg2mem44
  store i32 %55, i32* %.reg2mem46
  store i32 %53, i32* %esp.118.reg2mem
  store i8* %56, i8** %stack_var_-16.017.reg2mem
  store i32 %storemerge6, i32* %stack_var_-32.016.reg2mem
  br label %dec_label_pc_404f8d

dec_label_pc_404f8d:                              ; preds = %dec_label_pc_404f8d.lr.ph, %dec_label_pc_404fa7
  %esp.118.reload = load i32, i32* %esp.118.reg2mem
  %.reload45 = load i8, i8* %.reg2mem44
  %61 = sext i8 %.reload45 to i32, !insn.addr !1267
  %62 = icmp slt i8 %.reload45, 1
  store i32 %esp.118.reload, i32* %esp.1.lcssa.reg2mem, !insn.addr !1268
  store i32 %61, i32* %edx.0.reg2mem, !insn.addr !1268
  br i1 %62, label %dec_label_pc_404fe6, label %dec_label_pc_404f97, !insn.addr !1268

dec_label_pc_404f97:                              ; preds = %dec_label_pc_404f8d
  %stack_var_-32.016.reload = load i32, i32* %stack_var_-32.016.reg2mem
  %63 = sub i32 %stack_var_-32.016.reload, %stack_var_-8.0.reload, !insn.addr !1269
  %64 = icmp ugt i32 %63, %61, !insn.addr !1270
  %65 = icmp eq i1 %64, false, !insn.addr !1271
  store i32 %esp.118.reload, i32* %esp.1.lcssa.reg2mem, !insn.addr !1271
  store i32 %63, i32* %edx.0.reg2mem, !insn.addr !1271
  br i1 %65, label %dec_label_pc_404fe6, label %dec_label_pc_404fa7, !insn.addr !1271

dec_label_pc_404fa7:                              ; preds = %dec_label_pc_404f97
  %stack_var_-16.017.reload = load i8*, i8** %stack_var_-16.017.reg2mem
  %.reload47 = load i32, i32* %.reg2mem46
  %66 = sub i32 %stack_var_-32.016.reload, %61, !insn.addr !1272
  %67 = add i32 %esp.118.reload, -4, !insn.addr !1273
  %68 = inttoptr i32 %67 to i32*, !insn.addr !1273
  store i32 %60, i32* %68, align 4, !insn.addr !1273
  %69 = add i32 %esp.118.reload, -8, !insn.addr !1274
  %70 = inttoptr i32 %69 to i32*, !insn.addr !1274
  store i32 1, i32* %70, align 4, !insn.addr !1274
  %71 = add i32 %esp.118.reload, -12, !insn.addr !1275
  %72 = inttoptr i32 %71 to i32*, !insn.addr !1275
  store i32 %66, i32* %72, align 4, !insn.addr !1275
  %73 = call i32 @function_4080d0(i32 ptrtoint (i32* @2 to i32), i32 ptrtoint (i32* @2 to i32), i32 ptrtoint (i32* @2 to i32)), !insn.addr !1276
  %74 = add i32 %.reload47, 1, !insn.addr !1277
  %75 = inttoptr i32 %74 to i8*, !insn.addr !1277
  %76 = load i8, i8* %75, align 1, !insn.addr !1277
  %77 = icmp slt i8 %76, 1
  %spec.select = select i1 %77, i8* %stack_var_-16.017.reload, i8* %75
  %78 = ptrtoint i8* %spec.select to i32
  %79 = load i8, i8* %spec.select, align 1, !insn.addr !1263
  %80 = icmp eq i8 %79, 127, !insn.addr !1264
  store i8 %79, i8* %.reg2mem44, !insn.addr !1265
  store i32 %78, i32* %.reg2mem46, !insn.addr !1265
  store i32 %71, i32* %esp.118.reg2mem, !insn.addr !1265
  store i8* %spec.select, i8** %stack_var_-16.017.reg2mem, !insn.addr !1265
  store i32 %66, i32* %stack_var_-32.016.reg2mem, !insn.addr !1265
  store i32 %71, i32* %esp.1.lcssa.reg2mem, !insn.addr !1265
  store i32 %78, i32* %edx.0.reg2mem, !insn.addr !1265
  br i1 %80, label %dec_label_pc_404fe6, label %dec_label_pc_404f8d, !insn.addr !1265

dec_label_pc_404fe6:                              ; preds = %dec_label_pc_404f97, %dec_label_pc_404f8d, %dec_label_pc_404fa7, %dec_label_pc_404f56
  %edx.0.reload = load i32, i32* %edx.0.reg2mem
  %esp.1.lcssa.reload = load i32, i32* %esp.1.lcssa.reg2mem
  %81 = call i32 @"?size@?$basic_string@DU?$char_traits@D@std@@V?$allocator@D@2@@std@@QBEIXZ"(), !insn.addr !1278
  %82 = call i32 @function_409a60(), !insn.addr !1279
  %83 = icmp slt i32 %edx.0.reload, 0, !insn.addr !1280
  store i32 0, i32* %storemerge.reg2mem, !insn.addr !1281
  br i1 %83, label %dec_label_pc_405031, label %dec_label_pc_405005, !insn.addr !1281

dec_label_pc_405005:                              ; preds = %dec_label_pc_404fe6
  %84 = icmp eq i32 %edx.0.reload, 0, !insn.addr !1280
  %85 = icmp eq i1 %84, false, !insn.addr !1282
  %86 = icmp ne i1 %85, true, !insn.addr !1282
  %87 = icmp eq i32 %82, 0, !insn.addr !1283
  %or.cond = icmp eq i1 %86, %87
  store i32 0, i32* %storemerge.reg2mem, !insn.addr !1282
  br i1 %or.cond, label %dec_label_pc_405031, label %dec_label_pc_40500d, !insn.addr !1282

dec_label_pc_40500d:                              ; preds = %dec_label_pc_405005
  %88 = call i32 @function_409a60(), !insn.addr !1284
  %89 = icmp ugt i32 %88, %81
  store i32 0, i32* %storemerge.reg2mem, !insn.addr !1285
  br i1 %89, label %dec_label_pc_40501a, label %dec_label_pc_405031, !insn.addr !1285

dec_label_pc_40501a:                              ; preds = %dec_label_pc_40500d
  %90 = call i32 @function_409a60(), !insn.addr !1286
  %91 = sub i32 %90, %81, !insn.addr !1287
  store i32 %91, i32* %storemerge.reg2mem, !insn.addr !1288
  br label %dec_label_pc_405031, !insn.addr !1288

dec_label_pc_405031:                              ; preds = %dec_label_pc_404fe6, %dec_label_pc_40500d, %dec_label_pc_405005, %dec_label_pc_40501a
  %sext = mul i32 %arg6, 16777216
  %92 = sdiv i32 %sext, 16777216
  %storemerge.reload = load i32, i32* %storemerge.reg2mem
  %93 = call i32 @function_407e20(), !insn.addr !1289
  %94 = and i32 %93, 448, !insn.addr !1290
  switch i32 %94, label %dec_label_pc_405056 [
    i32 256, label %dec_label_pc_4050c0
    i32 64, label %dec_label_pc_4050c0
  ]

dec_label_pc_405056:                              ; preds = %dec_label_pc_405031
  %95 = add i32 %esp.1.lcssa.reload, -4, !insn.addr !1291
  %96 = inttoptr i32 %95 to i32*, !insn.addr !1291
  store i32 %storemerge.reload, i32* %96, align 4, !insn.addr !1291
  %97 = and i32 %92, 255
  %98 = add i32 %esp.1.lcssa.reload, -8, !insn.addr !1292
  %99 = inttoptr i32 %98 to i32*, !insn.addr !1292
  store i32 %97, i32* %99, align 4, !insn.addr !1292
  %100 = add i32 %esp.1.lcssa.reload, -12, !insn.addr !1293
  %101 = inttoptr i32 %100 to i32*, !insn.addr !1293
  store i32 %arg4, i32* %101, align 4, !insn.addr !1293
  %102 = add i32 %esp.1.lcssa.reload, -16, !insn.addr !1294
  %103 = inttoptr i32 %102 to i32*, !insn.addr !1294
  store i32 %arg3, i32* %103, align 4, !insn.addr !1294
  %104 = add i32 %esp.1.lcssa.reload, -20, !insn.addr !1295
  %105 = inttoptr i32 %104 to i32*, !insn.addr !1295
  %106 = ptrtoint i32* %stack_var_-120 to i32, !insn.addr !1295
  store i32 %106, i32* %105, align 4, !insn.addr !1295
  %107 = add i32 %esp.1.lcssa.reload, -24, !insn.addr !1296
  %108 = inttoptr i32 %107 to i32*, !insn.addr !1296
  store i32 %arg1, i32* %108, align 4, !insn.addr !1296
  %109 = call i32 @function_406550(i32 %94, i32 ptrtoint (i32* @2 to i32), i32 ptrtoint (i32* @2 to i32), i32 ptrtoint (i32* @2 to i32), i32 ptrtoint (i32* @2 to i32)), !insn.addr !1297
  %110 = inttoptr i32 %109 to i32*, !insn.addr !1298
  %111 = load i32, i32* %110, align 4, !insn.addr !1298
  %112 = add i32 %109, 4, !insn.addr !1299
  %113 = inttoptr i32 %112 to i32*, !insn.addr !1299
  %114 = load i32, i32* %113, align 4, !insn.addr !1299
  store i32 %stack_var_-8.0.reload, i32* %96, align 4, !insn.addr !1300
  store i32 0, i32* %99, align 4, !insn.addr !1301
  %115 = call i32 @"??A?$basic_string@DU?$char_traits@D@std@@V?$allocator@D@2@@std@@QAEAADI@Z"(i32 %37), !insn.addr !1302
  store i32 %115, i32* %101, align 4, !insn.addr !1303
  store i32 %114, i32* %103, align 4, !insn.addr !1304
  store i32 %111, i32* %105, align 4, !insn.addr !1305
  %116 = ptrtoint i32* %stack_var_-128 to i32, !insn.addr !1306
  store i32 %116, i32* %108, align 4, !insn.addr !1306
  %117 = add i32 %esp.1.lcssa.reload, -28, !insn.addr !1307
  %118 = inttoptr i32 %117 to i32*, !insn.addr !1307
  store i32 %arg1, i32* %118, align 4, !insn.addr !1307
  %119 = call i32 @function_406500(i32 ptrtoint (i32* @2 to i32), i32 ptrtoint (i32* @2 to i32), i32 ptrtoint (i32* @2 to i32), i32 ptrtoint (i32* @2 to i32), i32 ptrtoint (i32* @2 to i32)), !insn.addr !1308
  store i32 %97, i32* %.pre-phi.reg2mem, !insn.addr !1309
  store i32 0, i32* %stack_var_-24.0.reg2mem, !insn.addr !1309
  store i32 %119, i32* %stack_var_16.0.in.in.in.reg2mem, !insn.addr !1309
  store i32 %95, i32* %esp.2.reg2mem, !insn.addr !1309
  br label %dec_label_pc_40516b, !insn.addr !1309

dec_label_pc_4050c0:                              ; preds = %dec_label_pc_405031, %dec_label_pc_405031
  %120 = icmp eq i32 %94, 256, !insn.addr !1310
  %121 = icmp eq i1 %120, false, !insn.addr !1311
  %122 = add i32 %esp.1.lcssa.reload, -4
  %123 = inttoptr i32 %122 to i32*
  store i32 %stack_var_-8.0.reload, i32* %123, align 4
  %124 = add i32 %esp.1.lcssa.reload, -8
  %125 = inttoptr i32 %124 to i32*
  store i32 0, i32* %125, align 4
  %126 = call i32 @"??A?$basic_string@DU?$char_traits@D@std@@V?$allocator@D@2@@std@@QAEAADI@Z"(i32 %37)
  %127 = add i32 %esp.1.lcssa.reload, -12
  %128 = inttoptr i32 %127 to i32*
  store i32 %126, i32* %128, align 4
  %129 = add i32 %esp.1.lcssa.reload, -16
  %130 = inttoptr i32 %129 to i32*
  store i32 %arg4, i32* %130, align 4
  %131 = add i32 %esp.1.lcssa.reload, -20
  %132 = inttoptr i32 %131 to i32*
  store i32 %arg3, i32* %132, align 4
  %133 = add i32 %esp.1.lcssa.reload, -24
  %134 = inttoptr i32 %133 to i32*
  br i1 %121, label %dec_label_pc_405136, label %dec_label_pc_4050c9, !insn.addr !1311

dec_label_pc_4050c9:                              ; preds = %dec_label_pc_4050c0
  %135 = ptrtoint i32* %stack_var_-136 to i32, !insn.addr !1312
  store i32 %135, i32* %134, align 4, !insn.addr !1312
  %136 = add i32 %esp.1.lcssa.reload, -28, !insn.addr !1313
  %137 = inttoptr i32 %136 to i32*, !insn.addr !1313
  store i32 %arg1, i32* %137, align 4, !insn.addr !1313
  %138 = call i32 @function_406500(i32 ptrtoint (i32* @2 to i32), i32 ptrtoint (i32* @2 to i32), i32 ptrtoint (i32* @2 to i32), i32 ptrtoint (i32* @2 to i32), i32 ptrtoint (i32* @2 to i32)), !insn.addr !1314
  %139 = inttoptr i32 %138 to i32*, !insn.addr !1315
  %140 = load i32, i32* %139, align 4, !insn.addr !1315
  %141 = add i32 %138, 4, !insn.addr !1316
  %142 = inttoptr i32 %141 to i32*, !insn.addr !1316
  %143 = load i32, i32* %142, align 4, !insn.addr !1316
  store i32 %storemerge.reload, i32* %125, align 4, !insn.addr !1317
  %144 = and i32 %92, 255
  store i32 %144, i32* %128, align 4, !insn.addr !1318
  store i32 %143, i32* %130, align 4, !insn.addr !1319
  store i32 %140, i32* %132, align 4, !insn.addr !1320
  %145 = ptrtoint i32* %stack_var_-144 to i32, !insn.addr !1321
  store i32 %145, i32* %134, align 4, !insn.addr !1321
  store i32 %arg1, i32* %137, align 4, !insn.addr !1322
  %146 = call i32 @function_406550(i32 ptrtoint (i32* @2 to i32), i32 ptrtoint (i32* @2 to i32), i32 ptrtoint (i32* @2 to i32), i32 ptrtoint (i32* @2 to i32), i32 ptrtoint (i32* @2 to i32)), !insn.addr !1323
  store i32 %144, i32* %.pre-phi.reg2mem, !insn.addr !1324
  store i32 0, i32* %stack_var_-24.0.reg2mem, !insn.addr !1324
  store i32 %146, i32* %stack_var_16.0.in.in.in.reg2mem, !insn.addr !1324
  store i32 %122, i32* %esp.2.reg2mem, !insn.addr !1324
  br label %dec_label_pc_40516b, !insn.addr !1324

dec_label_pc_405136:                              ; preds = %dec_label_pc_4050c0
  %147 = ptrtoint i32* %stack_var_-152 to i32, !insn.addr !1325
  store i32 %147, i32* %134, align 4, !insn.addr !1325
  %148 = add i32 %esp.1.lcssa.reload, -28, !insn.addr !1326
  %149 = inttoptr i32 %148 to i32*, !insn.addr !1326
  store i32 %arg1, i32* %149, align 4, !insn.addr !1326
  %150 = call i32 @function_406500(i32 ptrtoint (i32* @2 to i32), i32 ptrtoint (i32* @2 to i32), i32 ptrtoint (i32* @2 to i32), i32 ptrtoint (i32* @2 to i32), i32 ptrtoint (i32* @2 to i32)), !insn.addr !1327
  %.pre = and i32 %92, 255, !insn.addr !1328
  store i32 %.pre, i32* %.pre-phi.reg2mem, !insn.addr !1329
  store i32 %storemerge.reload, i32* %stack_var_-24.0.reg2mem, !insn.addr !1329
  store i32 %150, i32* %stack_var_16.0.in.in.in.reg2mem, !insn.addr !1329
  store i32 %122, i32* %esp.2.reg2mem, !insn.addr !1329
  br label %dec_label_pc_40516b, !insn.addr !1329

dec_label_pc_40516b:                              ; preds = %dec_label_pc_405136, %dec_label_pc_4050c9, %dec_label_pc_405056
  %esp.2.reload = load i32, i32* %esp.2.reg2mem
  %stack_var_16.0.in.in.in.reload = load i32, i32* %stack_var_16.0.in.in.in.reg2mem
  %stack_var_-24.0.reload = load i32, i32* %stack_var_-24.0.reg2mem
  %.pre-phi.reload = load i32, i32* %.pre-phi.reg2mem
  %stack_var_16.0.in.in = add i32 %stack_var_16.0.in.in.in.reload, 4
  %stack_var_12.0.in = inttoptr i32 %stack_var_16.0.in.in.in.reload to i32*
  %stack_var_16.0.in = inttoptr i32 %stack_var_16.0.in.in to i32*
  %stack_var_12.0 = load i32, i32* %stack_var_12.0.in, align 4
  %stack_var_16.0 = load i32, i32* %stack_var_16.0.in, align 4
  %151 = sub i32 %81, %stack_var_-8.0.reload, !insn.addr !1330
  %152 = add i32 %esp.2.reload, -4, !insn.addr !1331
  %153 = inttoptr i32 %152 to i32*, !insn.addr !1331
  store i32 %151, i32* %153, align 4, !insn.addr !1331
  %154 = add i32 %esp.2.reload, -8, !insn.addr !1332
  %155 = inttoptr i32 %154 to i32*, !insn.addr !1332
  store i32 %stack_var_-8.0.reload, i32* %155, align 4, !insn.addr !1332
  %156 = call i32 @"??A?$basic_string@DU?$char_traits@D@std@@V?$allocator@D@2@@std@@QAEAADI@Z"(i32 %37), !insn.addr !1333
  %157 = add i32 %esp.2.reload, -12, !insn.addr !1334
  %158 = inttoptr i32 %157 to i32*, !insn.addr !1334
  store i32 %156, i32* %158, align 4, !insn.addr !1334
  %159 = add i32 %esp.2.reload, -16, !insn.addr !1335
  %160 = inttoptr i32 %159 to i32*, !insn.addr !1335
  store i32 %stack_var_16.0, i32* %160, align 4, !insn.addr !1335
  %161 = add i32 %esp.2.reload, -20, !insn.addr !1336
  %162 = inttoptr i32 %161 to i32*, !insn.addr !1336
  store i32 %stack_var_12.0, i32* %162, align 4, !insn.addr !1336
  %163 = add i32 %esp.2.reload, -24, !insn.addr !1337
  %164 = inttoptr i32 %163 to i32*, !insn.addr !1337
  %165 = ptrtoint i32* %stack_var_-160 to i32, !insn.addr !1337
  store i32 %165, i32* %164, align 4, !insn.addr !1337
  %166 = add i32 %esp.2.reload, -28, !insn.addr !1338
  %167 = inttoptr i32 %166 to i32*, !insn.addr !1338
  store i32 %arg1, i32* %167, align 4, !insn.addr !1338
  %168 = call i32 @function_406500(i32 ptrtoint (i32* @2 to i32), i32 ptrtoint (i32* @2 to i32), i32 ptrtoint (i32* @2 to i32), i32 ptrtoint (i32* @2 to i32), i32 ptrtoint (i32* @2 to i32)), !insn.addr !1339
  %169 = inttoptr i32 %168 to i32*, !insn.addr !1340
  %170 = load i32, i32* %169, align 4, !insn.addr !1340
  %171 = add i32 %168, 4, !insn.addr !1341
  %172 = inttoptr i32 %171 to i32*, !insn.addr !1341
  %173 = load i32, i32* %172, align 4, !insn.addr !1341
  store i32 0, i32* %155, align 4, !insn.addr !1342
  store i32 0, i32* %158, align 4, !insn.addr !1343
  %174 = call i32 @"?width@ios_base@std@@QAE_J_J@Z"(i64 ptrtoint (i32* @2 to i64)), !insn.addr !1344
  store i32 %stack_var_-24.0.reload, i32* %160, align 4, !insn.addr !1345
  store i32 %.pre-phi.reload, i32* %162, align 4, !insn.addr !1346
  store i32 %173, i32* %164, align 4, !insn.addr !1347
  store i32 %170, i32* %167, align 4, !insn.addr !1348
  %175 = add i32 %esp.2.reload, -32, !insn.addr !1349
  %176 = inttoptr i32 %175 to i32*, !insn.addr !1349
  store i32 %arg2, i32* %176, align 4, !insn.addr !1349
  %177 = add i32 %esp.2.reload, -36, !insn.addr !1350
  %178 = inttoptr i32 %177 to i32*, !insn.addr !1350
  store i32 %arg1, i32* %178, align 4, !insn.addr !1350
  %179 = call i32 @function_406550(i32 ptrtoint (i32* @2 to i32), i32 ptrtoint (i32* @2 to i32), i32 ptrtoint (i32* @2 to i32), i32 ptrtoint (i32* @2 to i32), i32 ptrtoint (i32* @2 to i32)), !insn.addr !1351
  %180 = call i32 @function_4037c0(), !insn.addr !1352
  %181 = call i32 @function_4037c0(), !insn.addr !1353
  ret i32 %arg2, !insn.addr !1354
}

declare i32 @"??1?$_String_val@U?$_Simple_types@D@std@@@std@@QAE@XZ.25"() local_unnamed_addr

define i32 @function_405210(i32* %arg1, i32 %arg2) local_unnamed_addr {
dec_label_pc_405210:
  %0 = icmp eq i32* %arg1, null, !insn.addr !1355
  br i1 %0, label %dec_label_pc_405286, label %dec_label_pc_405223, !insn.addr !1356

dec_label_pc_405223:                              ; preds = %dec_label_pc_405210
  %1 = load i32, i32* %arg1, align 4, !insn.addr !1357
  %2 = icmp eq i32 %1, 0, !insn.addr !1357
  %3 = icmp eq i1 %2, false, !insn.addr !1358
  br i1 %3, label %dec_label_pc_405286, label %dec_label_pc_40522b, !insn.addr !1358

dec_label_pc_40522b:                              ; preds = %dec_label_pc_405223
  %4 = call i32 @"??2@YAPAXI@Z"(i32 8), !insn.addr !1359
  %5 = icmp eq i32 %4, 0, !insn.addr !1360
  br i1 %5, label %dec_label_pc_40526a.thread, label %dec_label_pc_40527a, !insn.addr !1361

dec_label_pc_40526a.thread:                       ; preds = %dec_label_pc_40522b
  store i32 0, i32* %arg1, align 4, !insn.addr !1362
  br label %dec_label_pc_405286

dec_label_pc_40527a:                              ; preds = %dec_label_pc_40522b
  %6 = call i32 @"?c_str@locale@std@@QBEPBDXZ"(), !insn.addr !1363
  %7 = call i32 @function_402fe0(i32 %6), !insn.addr !1364
  %8 = call i32 @function_402dc0(i32 %7, i32 ptrtoint (i32* @2 to i32)), !insn.addr !1365
  store i32 %8, i32* %arg1, align 4, !insn.addr !1362
  %9 = call i32 @function_4038e0(i32 %8, i32 0), !insn.addr !1366
  br label %dec_label_pc_405286, !insn.addr !1366

dec_label_pc_405286:                              ; preds = %dec_label_pc_40526a.thread, %dec_label_pc_40527a, %dec_label_pc_405223, %dec_label_pc_405210
  ret i32 2, !insn.addr !1367
}

define i32 @function_405290(i32* %arg1, i32 %arg2) local_unnamed_addr {
dec_label_pc_405290:
  %0 = icmp eq i32* %arg1, null, !insn.addr !1368
  br i1 %0, label %dec_label_pc_405306, label %dec_label_pc_4052a3, !insn.addr !1369

dec_label_pc_4052a3:                              ; preds = %dec_label_pc_405290
  %1 = load i32, i32* %arg1, align 4, !insn.addr !1370
  %2 = icmp eq i32 %1, 0, !insn.addr !1370
  %3 = icmp eq i1 %2, false, !insn.addr !1371
  br i1 %3, label %dec_label_pc_405306, label %dec_label_pc_4052ab, !insn.addr !1371

dec_label_pc_4052ab:                              ; preds = %dec_label_pc_4052a3
  %4 = call i32 @"??2@YAPAXI@Z"(i32 24), !insn.addr !1372
  %5 = icmp eq i32 %4, 0, !insn.addr !1373
  br i1 %5, label %dec_label_pc_4052ea.thread, label %dec_label_pc_4052fa, !insn.addr !1374

dec_label_pc_4052ea.thread:                       ; preds = %dec_label_pc_4052ab
  store i32 0, i32* %arg1, align 4, !insn.addr !1375
  br label %dec_label_pc_405306

dec_label_pc_4052fa:                              ; preds = %dec_label_pc_4052ab
  %6 = call i32 @"?c_str@locale@std@@QBEPBDXZ"(), !insn.addr !1376
  %7 = call i32 @function_402fe0(i32 %6), !insn.addr !1377
  %8 = call i32 @function_402e00(i32 %7, i32 ptrtoint (i32* @2 to i32)), !insn.addr !1378
  store i32 %8, i32* %arg1, align 4, !insn.addr !1375
  %9 = call i32 @function_4038e0(i32 %8, i32 0), !insn.addr !1379
  br label %dec_label_pc_405306, !insn.addr !1379

dec_label_pc_405306:                              ; preds = %dec_label_pc_4052ea.thread, %dec_label_pc_4052fa, %dec_label_pc_4052a3, %dec_label_pc_405290
  ret i32 2, !insn.addr !1380
}

define i32 @function_405310(i32* %arg1, i32 %arg2) local_unnamed_addr {
dec_label_pc_405310:
  %0 = icmp eq i32* %arg1, null, !insn.addr !1381
  br i1 %0, label %dec_label_pc_405386, label %dec_label_pc_405323, !insn.addr !1382

dec_label_pc_405323:                              ; preds = %dec_label_pc_405310
  %1 = load i32, i32* %arg1, align 4, !insn.addr !1383
  %2 = icmp eq i32 %1, 0, !insn.addr !1383
  %3 = icmp eq i1 %2, false, !insn.addr !1384
  br i1 %3, label %dec_label_pc_405386, label %dec_label_pc_40532b, !insn.addr !1384

dec_label_pc_40532b:                              ; preds = %dec_label_pc_405323
  %4 = call i32 @"??2@YAPAXI@Z"(i32 8), !insn.addr !1385
  %5 = icmp eq i32 %4, 0, !insn.addr !1386
  br i1 %5, label %dec_label_pc_40536a.thread, label %dec_label_pc_40537a, !insn.addr !1387

dec_label_pc_40536a.thread:                       ; preds = %dec_label_pc_40532b
  store i32 0, i32* %arg1, align 4, !insn.addr !1388
  br label %dec_label_pc_405386

dec_label_pc_40537a:                              ; preds = %dec_label_pc_40532b
  %6 = call i32 @"?c_str@locale@std@@QBEPBDXZ"(), !insn.addr !1389
  %7 = call i32 @function_402fe0(i32 %6), !insn.addr !1390
  %8 = call i32 @function_402ec0(i32 %7, i32 ptrtoint (i32* @2 to i32)), !insn.addr !1391
  store i32 %8, i32* %arg1, align 4, !insn.addr !1388
  %9 = call i32 @function_4038e0(i32 %8, i32 0), !insn.addr !1392
  br label %dec_label_pc_405386, !insn.addr !1392

dec_label_pc_405386:                              ; preds = %dec_label_pc_40536a.thread, %dec_label_pc_40537a, %dec_label_pc_405323, %dec_label_pc_405310
  ret i32 4, !insn.addr !1393
}

define i32 @function_405390(i32* %arg1, i32 %arg2) local_unnamed_addr {
dec_label_pc_405390:
  %0 = icmp eq i32* %arg1, null, !insn.addr !1394
  br i1 %0, label %dec_label_pc_405408, label %dec_label_pc_4053a3, !insn.addr !1395

dec_label_pc_4053a3:                              ; preds = %dec_label_pc_405390
  %1 = load i32, i32* %arg1, align 4, !insn.addr !1396
  %2 = icmp eq i32 %1, 0, !insn.addr !1396
  %3 = icmp eq i1 %2, false, !insn.addr !1397
  br i1 %3, label %dec_label_pc_405408, label %dec_label_pc_4053ab, !insn.addr !1397

dec_label_pc_4053ab:                              ; preds = %dec_label_pc_4053a3
  %4 = call i32 @"??2@YAPAXI@Z"(i32 24), !insn.addr !1398
  %5 = icmp eq i32 %4, 0, !insn.addr !1399
  br i1 %5, label %dec_label_pc_4053ec.thread, label %dec_label_pc_4053fc, !insn.addr !1400

dec_label_pc_4053ec.thread:                       ; preds = %dec_label_pc_4053ab
  store i32 0, i32* %arg1, align 4, !insn.addr !1401
  br label %dec_label_pc_405408

dec_label_pc_4053fc:                              ; preds = %dec_label_pc_4053ab
  %6 = call i32 @"?c_str@locale@std@@QBEPBDXZ"(), !insn.addr !1402
  %7 = call i32 @function_402fe0(i32 %6), !insn.addr !1403
  %8 = call i32 @function_402f00(i32 %7, i32 ptrtoint (i32* @2 to i32), i32 ptrtoint (i32* @2 to i32)), !insn.addr !1404
  store i32 %8, i32* %arg1, align 4, !insn.addr !1401
  %9 = call i32 @function_4038e0(i32 %8, i32 0), !insn.addr !1405
  br label %dec_label_pc_405408, !insn.addr !1405

dec_label_pc_405408:                              ; preds = %dec_label_pc_4053ec.thread, %dec_label_pc_4053fc, %dec_label_pc_4053a3, %dec_label_pc_405390
  ret i32 4, !insn.addr !1406
}

define i32 @function_405470(i32* %arg1) local_unnamed_addr {
dec_label_pc_405470:
  %0 = call i32 @__decompiler_undefined_function_0()
  %1 = call i32 @__decompiler_undefined_function_0()
  %2 = ptrtoint i32* %arg1 to i32
  %stack_var_-52 = alloca i32, align 4
  %stack_var_-96 = alloca i32, align 4
  %3 = call i32 @__Getcvt(i32* nonnull %stack_var_-96, i32 %0, i32 %1), !insn.addr !1407
  %4 = inttoptr i32 %3 to i8*, !insn.addr !1408
  %5 = bitcast i32* %stack_var_-52 to i8*, !insn.addr !1408
  call void @__asm_rep_movsd_memcpy(i8* nonnull %5, i8* %4, i32 11), !insn.addr !1408
  %6 = bitcast i32* %arg1 to i8*, !insn.addr !1409
  call void @__asm_rep_movsd_memcpy(i8* %6, i8* nonnull %5, i32 11), !insn.addr !1409
  ret i32 %2, !insn.addr !1410
}

define i32 @function_4054b0(i32 %arg1) local_unnamed_addr {
dec_label_pc_4054b0:
  %eax.0.reg2mem = alloca i32, !insn.addr !1411
  %storemerge12.reg2mem = alloca i32, !insn.addr !1411
  %0 = call i32 @__decompiler_undefined_function_0()
  %1 = call i32 @__decompiler_undefined_function_0()
  %2 = add i32 %1, 4, !insn.addr !1412
  %3 = inttoptr i32 %2 to i32*, !insn.addr !1412
  %4 = load i32, i32* %3, align 4, !insn.addr !1412
  %5 = add i32 %4, 12, !insn.addr !1413
  %6 = inttoptr i32 %5 to i32*, !insn.addr !1413
  %7 = load i32, i32* %6, align 4, !insn.addr !1413
  %8 = icmp ugt i32 %7, %arg1, !insn.addr !1413
  %9 = icmp eq i1 %8, false, !insn.addr !1414
  store i32 0, i32* %storemerge12.reg2mem, !insn.addr !1414
  br i1 %9, label %dec_label_pc_4054ee, label %dec_label_pc_4054e2, !insn.addr !1414

dec_label_pc_4054e2:                              ; preds = %dec_label_pc_4054b0
  %10 = add i32 %4, 8, !insn.addr !1415
  %11 = inttoptr i32 %10 to i32*, !insn.addr !1415
  %12 = load i32, i32* %11, align 4, !insn.addr !1415
  %13 = mul i32 %arg1, 4, !insn.addr !1416
  %14 = add i32 %12, %13, !insn.addr !1416
  %15 = inttoptr i32 %14 to i32*, !insn.addr !1416
  %16 = load i32, i32* %15, align 4, !insn.addr !1416
  %17 = icmp eq i32 %16, 0, !insn.addr !1417
  %18 = icmp eq i1 %17, false, !insn.addr !1418
  store i32 %16, i32* %storemerge12.reg2mem, !insn.addr !1418
  store i32 %16, i32* %eax.0.reg2mem, !insn.addr !1418
  br i1 %18, label %dec_label_pc_405531, label %dec_label_pc_4054ee, !insn.addr !1418

dec_label_pc_4054ee:                              ; preds = %dec_label_pc_4054b0, %dec_label_pc_4054e2
  %storemerge12.reload = load i32, i32* %storemerge12.reg2mem
  %19 = add i32 %4, 20, !insn.addr !1419
  %20 = inttoptr i32 %19 to i8*, !insn.addr !1419
  %21 = load i8, i8* %20, align 1, !insn.addr !1419
  %22 = icmp eq i8 %21, 0, !insn.addr !1420
  %23 = icmp eq i1 %22, false, !insn.addr !1421
  store i32 %storemerge12.reload, i32* %eax.0.reg2mem, !insn.addr !1421
  br i1 %23, label %dec_label_pc_405503, label %dec_label_pc_405531, !insn.addr !1421

dec_label_pc_405503:                              ; preds = %dec_label_pc_4054ee
  %24 = call i32 @function_40a4f1(i32 %storemerge12.reload, i32 %storemerge12.reload, i32 %0), !insn.addr !1422
  %25 = add i32 %24, 12, !insn.addr !1423
  %26 = inttoptr i32 %25 to i32*, !insn.addr !1423
  %27 = load i32, i32* %26, align 4, !insn.addr !1423
  %28 = icmp ugt i32 %27, %arg1, !insn.addr !1423
  %29 = icmp eq i1 %28, false, !insn.addr !1424
  store i32 0, i32* %eax.0.reg2mem, !insn.addr !1424
  br i1 %29, label %dec_label_pc_405531, label %dec_label_pc_405516, !insn.addr !1424

dec_label_pc_405516:                              ; preds = %dec_label_pc_405503
  %30 = add i32 %24, 8, !insn.addr !1425
  %31 = inttoptr i32 %30 to i32*, !insn.addr !1425
  %32 = load i32, i32* %31, align 4, !insn.addr !1425
  %33 = mul i32 %arg1, 4, !insn.addr !1426
  %34 = add i32 %32, %33, !insn.addr !1426
  %35 = inttoptr i32 %34 to i32*, !insn.addr !1426
  %36 = load i32, i32* %35, align 4, !insn.addr !1426
  store i32 %36, i32* %eax.0.reg2mem, !insn.addr !1427
  br label %dec_label_pc_405531, !insn.addr !1427

dec_label_pc_405531:                              ; preds = %dec_label_pc_405516, %dec_label_pc_405503, %dec_label_pc_4054e2, %dec_label_pc_4054ee
  %eax.0.reload = load i32, i32* %eax.0.reg2mem
  ret i32 %eax.0.reload, !insn.addr !1428
}

declare i32 @"?_Getfalse@_Locinfo@std@@QBEPBDXZ"() local_unnamed_addr

declare i32 @"?_Getlconv@_Locinfo@std@@QBEPBUlconv@@XZ"() local_unnamed_addr

declare i32 @"?_Getfalse@_Locinfo@std@@QBEPBDXZ.26"() local_unnamed_addr

declare i32 @"?_Gnavail@?$basic_streambuf@DU?$char_traits@D@std@@@std@@IBE_JXZ"() local_unnamed_addr

declare i32 @"?_Gninc@?$basic_streambuf@DU?$char_traits@D@std@@@std@@IAEPADXZ"() local_unnamed_addr

define i32 @function_405630(i32 %arg1, i32 %arg2) local_unnamed_addr {
dec_label_pc_405630:
  %0 = call i32 @__decompiler_undefined_function_0()
  %1 = add i32 %0, 44, !insn.addr !1429
  %2 = inttoptr i32 %1 to i32*, !insn.addr !1429
  %3 = load i32, i32* %2, align 4, !insn.addr !1429
  %4 = inttoptr i32 %3 to i32*, !insn.addr !1430
  %5 = load i32, i32* %4, align 4, !insn.addr !1430
  %6 = add i32 %5, -1, !insn.addr !1431
  store i32 %6, i32* %4, align 4, !insn.addr !1432
  %7 = add i32 %0, 28, !insn.addr !1433
  %8 = inttoptr i32 %7 to i32*, !insn.addr !1433
  %9 = load i32, i32* %8, align 4
  %10 = inttoptr i32 %9 to i32*, !insn.addr !1434
  %11 = load i32, i32* %10, align 4, !insn.addr !1434
  %12 = add i32 %11, 1, !insn.addr !1435
  store i32 %12, i32* %10, align 4, !insn.addr !1436
  ret i32 %12, !insn.addr !1437
}

declare i32 @"?_Grow@?$basic_string@DU?$char_traits@D@std@@V?$allocator@D@2@@std@@QAE_NI_N@Z"(i32, i1) local_unnamed_addr

declare i32 @"?_Ifmt@?$num_put@DV?$ostreambuf_iterator@DU?$char_traits@D@std@@@std@@@std@@ABAPADPADPBDH@Z"(i8*, i8*, i32) local_unnamed_addr

define i32 @function_405850() {
dec_label_pc_405850:
  %0 = call i32 @__decompiler_undefined_function_0()
  %1 = add i32 %0, 4, !insn.addr !1438
  %2 = inttoptr i32 %1 to i32*, !insn.addr !1439
  %3 = load i32, i32* %2, align 4, !insn.addr !1439
  %4 = add i32 %3, 1, !insn.addr !1439
  store i32 %4, i32* %2, align 4, !insn.addr !1439
  ret i32 %1, !insn.addr !1440
}

declare i32 @"?_Init@?$basic_filebuf@DU?$char_traits@D@std@@@std@@IAEXPAU_iobuf@@W4_Initfl@12@@Z"(i32*, i32) local_unnamed_addr

define void @"??$destroy@PAD@?$allocator@D@std@@QAEXPAPAD@Z"(i32* %result, i8** %arg2) local_unnamed_addr {
dec_label_pc_405a00:
  ret void, !insn.addr !1441
}

declare i32 @"?_Init@?$ctype@D@std@@IAEXABV_Locinfo@2@@Z"(i32*) local_unnamed_addr

define i32 @function_405a50(i32 %arg1, i32 %arg2) local_unnamed_addr {
dec_label_pc_405a50:
  %storemerge.reg2mem = alloca i32, !insn.addr !1442
  %0 = call i32 @__decompiler_undefined_function_0()
  %stack_var_-76 = alloca i32, align 4
  %stack_var_-120 = alloca i32, align 4
  %stack_var_-16 = alloca i32, align 4
  %1 = call i32 @__readfsdword(i32 0), !insn.addr !1443
  store i32 %1, i32* %stack_var_-16, align 4, !insn.addr !1444
  %2 = ptrtoint i32* %stack_var_-16 to i32, !insn.addr !1444
  call void @__writefsdword(i32 0, i32 %2), !insn.addr !1445
  %3 = call i32 @"?_Getlconv@_Locinfo@std@@QBEPBUlconv@@XZ"(), !insn.addr !1446
  %4 = call i32 @function_405470(i32* nonnull %stack_var_-76), !insn.addr !1447
  %5 = add i32 %0, 8, !insn.addr !1448
  %6 = inttoptr i32 %5 to i32*, !insn.addr !1448
  store i32 0, i32* %6, align 4, !insn.addr !1448
  %7 = add i32 %0, 16, !insn.addr !1449
  %8 = inttoptr i32 %7 to i32*, !insn.addr !1449
  store i32 0, i32* %8, align 4, !insn.addr !1449
  %9 = add i32 %0, 20, !insn.addr !1450
  %10 = inttoptr i32 %9 to i32*, !insn.addr !1450
  store i32 0, i32* %10, align 4, !insn.addr !1450
  %11 = and i32 %arg2, 255, !insn.addr !1451
  %12 = icmp eq i32 %11, 0, !insn.addr !1452
  store i32 ptrtoint (i32* @global_var_427448 to i32), i32* %storemerge.reg2mem, !insn.addr !1453
  br i1 %12, label %dec_label_pc_405ac2, label %dec_label_pc_405acb, !insn.addr !1453

dec_label_pc_405ac2:                              ; preds = %dec_label_pc_405a50
  %13 = add i32 %3, 8, !insn.addr !1454
  %14 = inttoptr i32 %13 to i32*, !insn.addr !1454
  %15 = load i32, i32* %14, align 4, !insn.addr !1454
  store i32 %15, i32* %storemerge.reg2mem, !insn.addr !1455
  br label %dec_label_pc_405acb, !insn.addr !1455

dec_label_pc_405acb:                              ; preds = %dec_label_pc_405a50, %dec_label_pc_405ac2
  %storemerge.reload = load i32, i32* %storemerge.reg2mem
  %16 = call i32 @function_405470(i32* nonnull %stack_var_-120), !insn.addr !1456
  %17 = call i32 @function_4023b0(i32 %storemerge.reload), !insn.addr !1457
  store i32 %17, i32* %6, align 4, !insn.addr !1458
  %18 = call i32 @"?_Getfalse@_Locinfo@std@@QBEPBDXZ"(), !insn.addr !1459
  %19 = call i32 @function_4023b0(i32 %18), !insn.addr !1460
  store i32 %19, i32* %8, align 4, !insn.addr !1461
  %20 = call i32 @"?_Getfalse@_Locinfo@std@@QBEPBDXZ.26"(), !insn.addr !1462
  %21 = call i32 @function_4023b0(i32 %20), !insn.addr !1463
  store i32 %21, i32* %10, align 4, !insn.addr !1464
  %22 = call i32 @function_405b3f(), !insn.addr !1465
  ret i32 %22, !insn.addr !1465
}

define i32 @function_405b28() local_unnamed_addr {
dec_label_pc_405b28:
  %0 = call i32 @"?_Tidy@?$numpunct@D@std@@AAEXXZ"(), !insn.addr !1466
  %1 = call i32 @"__CxxThrowException@8"(i32* null, i32* null), !insn.addr !1467
  ret i32 4217672, !insn.addr !1468
}

define i32 @function_405b3f() local_unnamed_addr {
dec_label_pc_405b3f:
  %0 = call i32 @__decompiler_undefined_function_0()
  %1 = add i32 %0, -4, !insn.addr !1469
  %2 = inttoptr i32 %1 to i32*, !insn.addr !1469
  store i32 -1, i32* %2, align 4, !insn.addr !1469
  %3 = call i32 @function_405b4f(), !insn.addr !1470
  ret i32 %3, !insn.addr !1470
}

define i32 @function_405b48() local_unnamed_addr {
dec_label_pc_405b48:
  %0 = call i32 @__decompiler_undefined_function_0()
  %1 = call i32 @__decompiler_undefined_function_0()
  %2 = add i32 %0, -4, !insn.addr !1471
  %3 = inttoptr i32 %2 to i32*, !insn.addr !1471
  store i32 -1, i32* %3, align 4, !insn.addr !1471
  ret i32 %1, !insn.addr !1471
}

define i32 @function_405b4f() local_unnamed_addr {
dec_label_pc_405b4f:
  %eax.0.reg2mem = alloca i32, !insn.addr !1472
  %0 = call i32 @__decompiler_undefined_function_0()
  %stack_var_-44 = alloca i32, align 4
  %1 = add i32 %0, 12, !insn.addr !1472
  %2 = inttoptr i32 %1 to i8*, !insn.addr !1472
  %3 = load i8, i8* %2, align 1, !insn.addr !1472
  %4 = icmp eq i8 %3, 0, !insn.addr !1473
  %5 = add i32 %0, -72
  br i1 %4, label %dec_label_pc_405b85, label %dec_label_pc_405b57, !insn.addr !1474

dec_label_pc_405b57:                              ; preds = %dec_label_pc_405b4f
  %6 = inttoptr i32 %5 to i32*, !insn.addr !1475
  %7 = call i32 @function_4023a0(i32 46, i32 0, i32* %6), !insn.addr !1475
  %8 = add i32 %0, -20, !insn.addr !1476
  %9 = inttoptr i32 %8 to i32*, !insn.addr !1476
  %10 = load i32, i32* %9, align 4, !insn.addr !1476
  %11 = trunc i32 %7 to i8, !insn.addr !1477
  %12 = add i32 %10, 12, !insn.addr !1477
  %13 = inttoptr i32 %12 to i8*, !insn.addr !1477
  store i8 %11, i8* %13, align 1, !insn.addr !1477
  %14 = call i32 @function_4023a0(i32 44, i32 0, i32* %6), !insn.addr !1478
  %15 = load i32, i32* %9, align 4, !insn.addr !1479
  %16 = trunc i32 %14 to i8, !insn.addr !1480
  %17 = add i32 %15, 13, !insn.addr !1480
  %18 = inttoptr i32 %17 to i8*, !insn.addr !1480
  store i8 %16, i8* %18, align 1, !insn.addr !1480
  store i32 %14, i32* %eax.0.reg2mem, !insn.addr !1481
  br label %dec_label_pc_405ba2, !insn.addr !1481

dec_label_pc_405b85:                              ; preds = %dec_label_pc_405b4f
  %19 = inttoptr i32 %5 to i8*, !insn.addr !1482
  %20 = bitcast i32* %stack_var_-44 to i8*, !insn.addr !1482
  call void @__asm_rep_movsd_memcpy(i8* nonnull %20, i8* %19, i32 11), !insn.addr !1482
  %21 = add i32 %0, -28, !insn.addr !1483
  %22 = inttoptr i32 %21 to i32*, !insn.addr !1483
  %23 = load i32, i32* %22, align 4, !insn.addr !1483
  %24 = call i32 @function_4022e0(i32 0, i32 %23), !insn.addr !1484
  store i32 %24, i32* %eax.0.reg2mem, !insn.addr !1484
  br label %dec_label_pc_405ba2, !insn.addr !1484

dec_label_pc_405ba2:                              ; preds = %dec_label_pc_405b85, %dec_label_pc_405b57
  %eax.0.reload = load i32, i32* %eax.0.reg2mem
  %25 = add i32 %0, -12, !insn.addr !1485
  %26 = inttoptr i32 %25 to i32*, !insn.addr !1485
  %27 = load i32, i32* %26, align 4, !insn.addr !1485
  call void @__writefsdword(i32 0, i32 %27), !insn.addr !1486
  ret i32 %eax.0.reload, !insn.addr !1487
}

define i32 @function_405c70(i32 %arg1, i32 %arg2) local_unnamed_addr {
dec_label_pc_405c70:
  %0 = inttoptr i32 %arg1 to i32*, !insn.addr !1488
  store i32 %arg2, i32* %0, align 4, !insn.addr !1488
  ret i32 %arg1, !insn.addr !1489
}

declare i32 @"?_Initcvt@?$basic_filebuf@DU?$char_traits@D@std@@@std@@IAEXPBV?$codecvt@DDU_Mbstatet@@@2@@Z"(i32*) local_unnamed_addr

declare i32 @"?_Inside@?$basic_string@DU?$char_traits@D@std@@V?$allocator@D@2@@std@@QAE_NPBD@Z"(i8*) local_unnamed_addr

define i32 @function_405d10(i32 %arg1) local_unnamed_addr {
dec_label_pc_405d10:
  %storemerge.reg2mem = alloca i32, !insn.addr !1490
  %esp.2.reg2mem = alloca i32, !insn.addr !1490
  %esp.1.reg2mem = alloca i32, !insn.addr !1490
  %.reg2mem34 = alloca i32*, !insn.addr !1490
  %.reg2mem32 = alloca i32, !insn.addr !1490
  %.reg2mem = alloca i32*, !insn.addr !1490
  %.lcssa.reg2mem = alloca i32*, !insn.addr !1490
  %.lcssa6.reg2mem = alloca i32, !insn.addr !1490
  %.lcssa10.reg2mem = alloca i32*, !insn.addr !1490
  %0 = call i32 @__decompiler_undefined_function_0()
  %stack_var_-32 = alloca i32, align 4
  %stack_var_-28 = alloca i32, align 4
  %stack_var_-60 = alloca i32, align 4
  %stack_var_-56 = alloca i32, align 4
  %stack_var_-44 = alloca i32, align 4
  %stack_var_-16 = alloca i32, align 4
  %1 = call i32 @__readfsdword(i32 0), !insn.addr !1491
  store i32 %1, i32* %stack_var_-16, align 4, !insn.addr !1492
  %2 = ptrtoint i32* %stack_var_-16 to i32, !insn.addr !1492
  call void @__writefsdword(i32 0, i32 %2), !insn.addr !1493
  %3 = ptrtoint i32* %stack_var_-56 to i32, !insn.addr !1494
  %4 = call i32 @"?good@ios_base@std@@QBE_NXZ"(), !insn.addr !1495
  %5 = and i32 %4, 255, !insn.addr !1496
  %6 = icmp eq i32 %5, 0, !insn.addr !1497
  store i32 %3, i32* %esp.2.reg2mem, !insn.addr !1498
  br i1 %6, label %dec_label_pc_405eb6, label %dec_label_pc_405d52, !insn.addr !1498

dec_label_pc_405d52:                              ; preds = %dec_label_pc_405d10
  %7 = call i32 @function_409530(), !insn.addr !1499
  %8 = icmp eq i32 %7, 0, !insn.addr !1500
  br i1 %8, label %dec_label_pc_405d7f, label %dec_label_pc_405d66, !insn.addr !1501

dec_label_pc_405d66:                              ; preds = %dec_label_pc_405d52
  %9 = call i32 @function_409530(), !insn.addr !1502
  %10 = call i32 @function_407e40(), !insn.addr !1503
  br label %dec_label_pc_405d7f, !insn.addr !1503

dec_label_pc_405d7f:                              ; preds = %dec_label_pc_405d66, %dec_label_pc_405d52
  %11 = and i32 %arg1, 255
  %12 = icmp eq i32 %11, 0, !insn.addr !1504
  %13 = icmp eq i1 %12, false, !insn.addr !1505
  store i32 %3, i32* %esp.1.reg2mem, !insn.addr !1505
  br i1 %13, label %dec_label_pc_405e99, label %dec_label_pc_405d8b, !insn.addr !1505

dec_label_pc_405d8b:                              ; preds = %dec_label_pc_405d7f
  %14 = call i32 @function_407e20(), !insn.addr !1506
  %15 = and i32 %14, 1, !insn.addr !1507
  %16 = icmp eq i32 %15, 0, !insn.addr !1507
  store i32 %3, i32* %esp.1.reg2mem, !insn.addr !1508
  br i1 %16, label %dec_label_pc_405e99, label %dec_label_pc_405da4, !insn.addr !1508

dec_label_pc_405da4:                              ; preds = %dec_label_pc_405d8b
  %17 = ptrtoint i32* %stack_var_-44 to i32, !insn.addr !1509
  store i32 %17, i32* %stack_var_-60, align 4, !insn.addr !1509
  %18 = call i32 @function_407f50(i32* nonnull %stack_var_-44), !insn.addr !1510
  %19 = call i32 @function_402690(i32 %18), !insn.addr !1511
  %20 = ptrtoint i32* %stack_var_-60 to i32, !insn.addr !1512
  %21 = trunc i32 %19 to i16, !insn.addr !1513
  %22 = call i32 @"??1?$shared_ptr@V__ExceptionPtr@@@std@@QAE@XZ"(), !insn.addr !1514
  %23 = call i32 @function_408b30(), !insn.addr !1515
  %24 = call i32 @function_409260(), !insn.addr !1516
  store i32 %24, i32* %stack_var_-28, align 4
  %25 = call i32 @"?eof@?$char_traits@D@std@@SAHXZ"(), !insn.addr !1517
  store i32 %25, i32* %stack_var_-32, align 4, !insn.addr !1518
  %26 = add i32 %20, -4, !insn.addr !1519
  %27 = inttoptr i32 %26 to i32*, !insn.addr !1519
  %28 = ptrtoint i32* %stack_var_-28 to i32, !insn.addr !1519
  store i32 %28, i32* %27, align 4, !insn.addr !1519
  %29 = ptrtoint i32* %stack_var_-32 to i32, !insn.addr !1520
  %30 = add i32 %20, -8, !insn.addr !1521
  %31 = inttoptr i32 %30 to i32*, !insn.addr !1521
  store i32 %29, i32* %31, align 4, !insn.addr !1521
  %32 = load i32, i32* %stack_var_-32, align 4, !insn.addr !1522
  %33 = inttoptr i32 %32 to i32*, !insn.addr !1522
  %34 = call i32 @"?eq_int_type@?$char_traits@D@std@@SA_NABH0@Z"(i32* %33, i32* nonnull @2), !insn.addr !1522
  %35 = and i32 %34, 255, !insn.addr !1523
  %36 = icmp eq i32 %35, 0, !insn.addr !1524
  store i32* %27, i32** %.lcssa10.reg2mem, !insn.addr !1525
  store i32 %30, i32* %.lcssa6.reg2mem, !insn.addr !1525
  store i32* %31, i32** %.lcssa.reg2mem, !insn.addr !1525
  store i32* %31, i32** %.reg2mem, !insn.addr !1525
  store i32 %30, i32* %.reg2mem32, !insn.addr !1525
  store i32* %27, i32** %.reg2mem34, !insn.addr !1525
  br i1 %36, label %dec_label_pc_405e46, label %dec_label_pc_405e2c, !insn.addr !1525

dec_label_pc_405e2c:                              ; preds = %dec_label_pc_405e69, %dec_label_pc_405da4
  %.lcssa.reload = load i32*, i32** %.lcssa.reg2mem
  %.lcssa6.reload = load i32, i32* %.lcssa6.reg2mem
  %.lcssa10.reload = load i32*, i32** %.lcssa10.reg2mem
  store i32 0, i32* %.lcssa10.reload, align 4, !insn.addr !1526
  store i32 1, i32* %.lcssa.reload, align 4, !insn.addr !1527
  %37 = add i32 %29, 4, !insn.addr !1528
  %38 = inttoptr i32 %37 to i32*, !insn.addr !1528
  %39 = load i32, i32* %38, align 4, !insn.addr !1528
  %40 = add i32 %39, %0, !insn.addr !1528
  %41 = call i32 @"?setstate@?$basic_ios@DU?$char_traits@D@std@@@std@@QAEXH_N@Z"(i32 %40, i1 ptrtoint (i32* @2 to i1)), !insn.addr !1529
  store i32 %.lcssa6.reload, i32* %esp.1.reg2mem, !insn.addr !1530
  br label %dec_label_pc_405e99, !insn.addr !1530

dec_label_pc_405e46:                              ; preds = %dec_label_pc_405da4, %dec_label_pc_405e69
  %.reload35 = load i32*, i32** %.reg2mem34
  %.reload33 = load i32, i32* %.reg2mem32
  %.reload = load i32*, i32** %.reg2mem
  store i32 %28, i32* %.reload35, align 4, !insn.addr !1531
  %42 = call i8 @"?to_char_type@?$char_traits@D@std@@SADABH@Z"(i32* nonnull @2), !insn.addr !1532
  %43 = zext i8 %42 to i32
  store i32 %43, i32* %.reload35, align 4, !insn.addr !1533
  store i32 72, i32* %.reload, align 4, !insn.addr !1534
  %44 = call i32 @"?is@?$ctype@D@std@@QBE_NFD@Z"(i16 %21, i8 ptrtoint (i32* @2 to i8)), !insn.addr !1535
  %45 = and i32 %44, 255, !insn.addr !1536
  %46 = icmp eq i32 %45, 0, !insn.addr !1537
  %47 = icmp eq i1 %46, false, !insn.addr !1538
  store i32 %.reload33, i32* %esp.1.reg2mem, !insn.addr !1538
  br i1 %47, label %dec_label_pc_405e69, label %dec_label_pc_405e99, !insn.addr !1538

dec_label_pc_405e69:                              ; preds = %dec_label_pc_405e46
  %48 = call i32 @function_408b30(), !insn.addr !1539
  %49 = call i32 @function_409320(), !insn.addr !1540
  store i32 %49, i32* %stack_var_-28, align 4
  %50 = call i32 @"?eof@?$char_traits@D@std@@SAHXZ"(), !insn.addr !1517
  store i32 %50, i32* %stack_var_-32, align 4, !insn.addr !1518
  %51 = add i32 %.reload33, -4, !insn.addr !1519
  %52 = inttoptr i32 %51 to i32*
  store i32 %28, i32* %52, align 4, !insn.addr !1519
  %53 = add i32 %.reload33, -8, !insn.addr !1521
  %54 = inttoptr i32 %53 to i32*
  store i32 %29, i32* %54, align 4, !insn.addr !1521
  %55 = load i32, i32* %stack_var_-32, align 4, !insn.addr !1522
  %56 = inttoptr i32 %55 to i32*, !insn.addr !1522
  %57 = call i32 @"?eq_int_type@?$char_traits@D@std@@SA_NABH0@Z"(i32* %56, i32* nonnull @2), !insn.addr !1522
  %58 = and i32 %57, 255, !insn.addr !1523
  %59 = icmp eq i32 %58, 0, !insn.addr !1524
  store i32* %52, i32** %.lcssa10.reg2mem, !insn.addr !1525
  store i32 %53, i32* %.lcssa6.reg2mem, !insn.addr !1525
  store i32* %54, i32** %.lcssa.reg2mem, !insn.addr !1525
  store i32* %54, i32** %.reg2mem, !insn.addr !1525
  store i32 %53, i32* %.reg2mem32, !insn.addr !1525
  store i32* %52, i32** %.reg2mem34, !insn.addr !1525
  br i1 %59, label %dec_label_pc_405e46, label %dec_label_pc_405e2c, !insn.addr !1525

dec_label_pc_405e99:                              ; preds = %dec_label_pc_405e46, %dec_label_pc_405e2c, %dec_label_pc_405d8b, %dec_label_pc_405d7f
  %esp.1.reload = load i32, i32* %esp.1.reg2mem
  %60 = call i32 @"?good@ios_base@std@@QBE_NXZ"(), !insn.addr !1541
  %61 = and i32 %60, 255, !insn.addr !1542
  %62 = icmp eq i32 %61, 0, !insn.addr !1543
  store i32 %esp.1.reload, i32* %esp.2.reg2mem, !insn.addr !1544
  store i32 1, i32* %storemerge.reg2mem, !insn.addr !1544
  br i1 %62, label %dec_label_pc_405eb6, label %dec_label_pc_405ecc, !insn.addr !1544

dec_label_pc_405eb6:                              ; preds = %dec_label_pc_405e99, %dec_label_pc_405d10
  %esp.2.reload = load i32, i32* %esp.2.reg2mem
  %63 = add i32 %esp.2.reload, -4, !insn.addr !1545
  %64 = inttoptr i32 %63 to i32*, !insn.addr !1545
  store i32 0, i32* %64, align 4, !insn.addr !1545
  %65 = add i32 %esp.2.reload, -8, !insn.addr !1546
  %66 = inttoptr i32 %65 to i32*, !insn.addr !1546
  store i32 2, i32* %66, align 4, !insn.addr !1546
  %67 = add i32 %0, 4, !insn.addr !1547
  %68 = inttoptr i32 %67 to i32*, !insn.addr !1547
  %69 = load i32, i32* %68, align 4, !insn.addr !1547
  %70 = add i32 %69, %0, !insn.addr !1547
  %71 = call i32 @"?setstate@?$basic_ios@DU?$char_traits@D@std@@@std@@QAEXH_N@Z"(i32 %70, i1 ptrtoint (i32* @2 to i1)), !insn.addr !1548
  %72 = and i32 %71, -256, !insn.addr !1549
  store i32 %72, i32* %storemerge.reg2mem, !insn.addr !1549
  br label %dec_label_pc_405ecc, !insn.addr !1549

dec_label_pc_405ecc:                              ; preds = %dec_label_pc_405e99, %dec_label_pc_405eb6
  %storemerge.reload = load i32, i32* %storemerge.reg2mem
  %73 = load i32, i32* %stack_var_-16, align 4, !insn.addr !1550
  call void @__writefsdword(i32 0, i32 %73), !insn.addr !1551
  ret i32 %storemerge.reload, !insn.addr !1552
}

define i32 @function_405ee0(i32 %arg1, i32 %arg2, i32 %arg3, i32 %arg4, i32 %arg5, i32 %arg6, i32* %arg7, i32 %arg8) local_unnamed_addr {
dec_label_pc_405ee0:
  %esp.2.reg2mem = alloca i32, !insn.addr !1553
  %stack_var_16.0.in.in.in.reg2mem = alloca i32, !insn.addr !1553
  %stack_var_-20.0.reg2mem = alloca i32, !insn.addr !1553
  %.pre-phi.reg2mem = alloca i32, !insn.addr !1553
  %storemerge.reg2mem = alloca i32, !insn.addr !1553
  %esp.1.reg2mem = alloca i32, !insn.addr !1553
  %edx.1.reg2mem = alloca i32, !insn.addr !1553
  %stack_var_-12.013.reg2mem = alloca i8*, !insn.addr !1553
  %stack_var_32.014.reg2mem = alloca i32, !insn.addr !1553
  %esp.015.reg2mem = alloca i32, !insn.addr !1553
  %.reg2mem = alloca i8, !insn.addr !1553
  %stack_var_-8.0.reg2mem = alloca i32, !insn.addr !1553
  %storemerge3.reg2mem = alloca i32, !insn.addr !1553
  %stack_var_-136 = alloca i32, align 4
  %stack_var_-128 = alloca i32, align 4
  %stack_var_-120 = alloca i32, align 4
  %stack_var_-112 = alloca i32, align 4
  %stack_var_-104 = alloca i32, align 4
  %stack_var_-96 = alloca i32, align 4
  %stack_var_-200 = alloca i32, align 4
  %stack_var_-88 = alloca i32, align 4
  %stack_var_-72 = alloca i32, align 4
  %stack_var_-80 = alloca i32, align 4
  %stack_var_-160 = alloca i32, align 4
  %0 = icmp eq i32 %arg8, 0, !insn.addr !1554
